Certificate:
    Data:
        Version: 3 (0x2)
        Serial Number: 20 (0x14)
    Signature Algorithm: sha256WithRSAEncryption
        Issuer: C=US, ST=California, L=Los Angeles, O=DigiCert Inc, OU=www.digicert.com, CN=DigiCert Global Root CA/emailAddress=www.digicert.com
        Validity
            Not Before: Jun 15 16:13:40 2021 GMT
            Not After : Jun 13 16:13:40 2031 GMT
        Subject: C=US, ST=California, L=Los Angeles, O=DigiCert Inc, OU=www.digicert.com, CN=acs.m.taobao.com/emailAddress=www.digicert.com
        Subject Public Key Info:
            Public Key Algorithm: rsaEncryption
                Public-Key: (1024 bit)
                Modulus:
                    00:ba:ad:4c:09:1a:3c:85:4f:60:d5:93:bc:9e:12:
                    f4:9b:16:e7:8b:d2:28:29:ab:f9:38:99:e1:84:3a:
                    1b:70:6e:a0:5b:ad:f3:4e:65:5c:19:fb:56:89:16:
                    fb:68:36:43:1a:3b:b6:32:4d:63:43:b0:c5:10:69:
                    3d:96:13:7f:aa:e4:74:d4:b3:60:aa:af:5b:c7:56:
                    f6:e1:49:55:d9:92:ba:70:37:73:4c:91:6b:cc:10:
                    8e:58:f2:e2:1b:1b:1e:72:3e:c6:bb:a5:ca:08:d8:
                    bb:23:bb:bf:86:02:de:11:e9:d9:79:6d:60:a6:c6:
                    0c:2c:e3:35:72:f1:76:bf:b5
                Exponent: 65537 (0x10001)
        X509v3 extensions:
            X509v3 Subject Alternative Name: 
                DNS:acs.m.taobao.com
    Signature Algorithm: sha256WithRSAEncryption
         36:63:76:da:65:0a:cb:b3:e5:9f:22:00:49:ac:98:5e:05:00:
         ee:2a:13:00:2d:cc:22:90:45:42:30:9c:ae:78:78:71:e3:a0:
         d7:95:00:43:9a:44:3e:e1:18:83:dc:0e:6c:cb:95:89:1f:bb:
         7a:2a:d5:61:84:2f:77:ba:a9:1a:3b:00:87:25:8f:26:c6:6b:
         b6:be:20:37:57:6d:d4:9a:5c:cd:8b:44:a9:e5:ad:20:29:f5:
         14:ba:9e:fb:ec:a4:26:9d:36:8b:62:a9:59:1e:d1:5d:7f:b9:
         50:83:a0:50:b2:6f:77:a2:e4:c7:bb:20:c7:78:a4:67:52:a2:
         d2:41:f7:33:46:57:fa:16:f3:fd:af:1f:c2:d2:69:38:46:1f:
         db:e5:fc:a4:91:a1:50:6b:6a:e5:58:62:70:b2:f7:bb:69:77:
         f8:7d:f7:9d:33:5e:81:b7:47:24:da:a4:13:df:1a:94:ca:e3:
         65:d2:74:24:0a:7b:c8:8a:11:e5:7e:3c:88:73:8b:85:bf:06:
         b6:f2:3c:04:7f:34:c2:c8:d1:89:0b:da:96:45:e7:76:5b:0d:
         7b:81:84:47:14:82:24:e4:6c:2d:71:ba:ba:b2:e9:a1:5e:64:
         46:46:46:c2:73:d0:3c:e4:98:bd:f5:96:4a:d2:9c:3f:b9:43:
         ee:3b:47:89
-----BEGIN CERTIFICATE-----
MIIDazCCAlOgAwIBAgIBFDANBgkqhkiG9w0BAQsFADCBrTELMAkGA1UEBhMCVVMx
EzARBgNVBAgMCkNhbGlmb3JuaWExFDASBgNVBAcMC0xvcyBBbmdlbGVzMRUwEwYD
VQQKDAxEaWdpQ2VydCBJbmMxGTAXBgNVBAsMEHd3dy5kaWdpY2VydC5jb20xIDAe
BgNVBAMMF0RpZ2lDZXJ0IEdsb2JhbCBSb290IENBMR8wHQYJKoZIhvcNAQkBFhB3
d3cuZGlnaWNlcnQuY29tMB4XDTIxMDYxNTE2MTM0MFoXDTMxMDYxMzE2MTM0MFow
gaYxCzAJBgNVBAYTAlVTMRMwEQYDVQQIDApDYWxpZm9ybmlhMRQwEgYDVQQHDAtM
b3MgQW5nZWxlczEVMBMGA1UECgwMRGlnaUNlcnQgSW5jMRkwFwYDVQQLDBB3d3cu
ZGlnaWNlcnQuY29tMRkwFwYDVQQDDBBhY3MubS50YW9iYW8uY29tMR8wHQYJKoZI
hvcNAQkBFhB3d3cuZGlnaWNlcnQuY29tMIGfMA0GCSqGSIb3DQEBAQUAA4GNADCB
iQKBgQC6rUwJGjyFT2DVk7yeEvSbFueL0igpq/k4meGEOhtwbqBbrfNOZVwZ+1aJ
FvtoNkMaO7YyTWNDsMUQaT2WE3+q5HTUs2Cqr1vHVvbhSVXZkrpwN3NMkWvMEI5Y
8uIbGx5yPsa7pcoI2Lsju7+GAt4R6dl5bWCmxgws4zVy8Xa/tQIDAQABox8wHTAb
BgNVHREEFDASghBhY3MubS50YW9iYW8uY29tMA0GCSqGSIb3DQEBCwUAA4IBAQA2
Y3baZQrLs+WfIgBJrJheBQDuKhMALcwikEVCMJyueHhx46DXlQBDmkQ+4RiD3A5s
y5WJH7t6KtVhhC93uqkaOwCHJY8mxmu2viA3V23UmlzNi0Sp5a0gKfUUup777KQm
nTaLYqlZHtFdf7lQg6BQsm93ouTHuyDHeKRnUqLSQfczRlf6FvP9rx/C0mk4Rh/b
5fykkaFQa2rlWGJwsve7aXf4ffedM16Bt0ck2qQT3xqUyuNl0nQkCnvIihHlfjyI
c4uFvwa28jwEfzTCyNGJC9qWRed2Ww17gYRHFIIk5Gwtcbq6sumhXmRGRkbCc9A8
5Ji99ZZK0pw/uUPuO0eJ
-----END CERTIFICATE-----
