Certificate:
    Data:
        Version: 3 (0x2)
        Serial Number: 34 (0x22)
        Signature Algorithm: sha256WithRSAEncryption
        Issuer: C=US, ST=California, L=Los Angeles, O=DigiCert Inc, OU=www.digicert.com, CN=DigiCert Global Root CA/emailAddress=www.digicert.com
        Validity
            Not Before: Jun 26 08:05:14 2023 GMT
            Not After : Jun 23 08:05:14 2033 GMT
        Subject: C=US, ST=California, L=Los Angeles, O=DigiCert Inc, OU=www.digicert.com, CN=adash.man.aliyuncs.com/emailAddress=www.digicert.com
        Subject Public Key Info:
            Public Key Algorithm: rsaEncryption
                RSA Public-Key: (1024 bit)
                Modulus:
                    00:ba:ad:4c:09:1a:3c:85:4f:60:d5:93:bc:9e:12:
                    f4:9b:16:e7:8b:d2:28:29:ab:f9:38:99:e1:84:3a:
                    1b:70:6e:a0:5b:ad:f3:4e:65:5c:19:fb:56:89:16:
                    fb:68:36:43:1a:3b:b6:32:4d:63:43:b0:c5:10:69:
                    3d:96:13:7f:aa:e4:74:d4:b3:60:aa:af:5b:c7:56:
                    f6:e1:49:55:d9:92:ba:70:37:73:4c:91:6b:cc:10:
                    8e:58:f2:e2:1b:1b:1e:72:3e:c6:bb:a5:ca:08:d8:
                    bb:23:bb:bf:86:02:de:11:e9:d9:79:6d:60:a6:c6:
                    0c:2c:e3:35:72:f1:76:bf:b5
                Exponent: 65537 (0x10001)
        X509v3 extensions:
            X509v3 Subject Alternative Name: 
                DNS:adash.man.aliyuncs.com
    Signature Algorithm: sha256WithRSAEncryption
         73:1f:32:12:d4:72:d2:31:8b:01:02:67:e8:6a:a7:b4:e2:5d:
         f1:d9:5a:bc:e2:ca:62:59:89:55:4a:0f:d0:bc:ae:3d:5a:7c:
         f3:e6:b6:3b:2a:6a:ec:4f:81:30:d2:d0:9e:01:f2:ee:f6:44:
         af:ec:ea:2a:b9:23:45:73:e7:de:be:6c:60:75:ad:b5:fe:67:
         7b:e2:40:73:6d:92:b1:4b:7d:2f:9f:db:a2:cc:1c:79:5d:d0:
         d7:b1:6a:c0:5b:f1:a9:49:a9:3f:9c:6c:e8:fc:07:46:f5:8b:
         3b:bc:40:cb:a5:ad:d7:a9:48:31:29:44:f3:ab:1f:3e:d6:9f:
         d9:66:b0:54:c1:17:44:ae:00:b8:f6:c2:60:b6:9e:a7:8d:68:
         ec:1b:b1:af:50:e1:63:f6:da:84:5a:0d:9a:a8:81:53:55:67:
         3e:aa:91:e1:0e:e1:89:c3:61:22:de:bd:b5:ae:95:cc:f4:59:
         69:da:69:1e:64:ce:7c:15:25:9d:32:3e:73:f7:98:b3:95:f4:
         8b:5d:f5:d8:c8:0a:4d:08:25:c6:73:5f:f0:b8:8d:f5:b0:b7:
         18:04:b7:f3:c7:20:81:4e:0d:b4:e0:a9:8e:43:c9:40:df:43:
         5d:53:ed:f1:29:39:9a:42:41:ff:66:22:66:92:37:14:fd:4c:
         f2:45:43:9c
-----BEGIN CERTIFICATE-----
MIIDdzCCAl+gAwIBAgIBIjANBgkqhkiG9w0BAQsFADCBrTELMAkGA1UEBhMCVVMx
EzARBgNVBAgMCkNhbGlmb3JuaWExFDASBgNVBAcMC0xvcyBBbmdlbGVzMRUwEwYD
VQQKDAxEaWdpQ2VydCBJbmMxGTAXBgNVBAsMEHd3dy5kaWdpY2VydC5jb20xIDAe
BgNVBAMMF0RpZ2lDZXJ0IEdsb2JhbCBSb290IENBMR8wHQYJKoZIhvcNAQkBFhB3
d3cuZGlnaWNlcnQuY29tMB4XDTIzMDYyNjA4MDUxNFoXDTMzMDYyMzA4MDUxNFow
gawxCzAJBgNVBAYTAlVTMRMwEQYDVQQIDApDYWxpZm9ybmlhMRQwEgYDVQQHDAtM
b3MgQW5nZWxlczEVMBMGA1UECgwMRGlnaUNlcnQgSW5jMRkwFwYDVQQLDBB3d3cu
ZGlnaWNlcnQuY29tMR8wHQYDVQQDDBZhZGFzaC5tYW4uYWxpeXVuY3MuY29tMR8w
HQYJKoZIhvcNAQkBFhB3d3cuZGlnaWNlcnQuY29tMIGfMA0GCSqGSIb3DQEBAQUA
A4GNADCBiQKBgQC6rUwJGjyFT2DVk7yeEvSbFueL0igpq/k4meGEOhtwbqBbrfNO
ZVwZ+1aJFvtoNkMaO7YyTWNDsMUQaT2WE3+q5HTUs2Cqr1vHVvbhSVXZkrpwN3NM
kWvMEI5Y8uIbGx5yPsa7pcoI2Lsju7+GAt4R6dl5bWCmxgws4zVy8Xa/tQIDAQAB
oyUwIzAhBgNVHREEGjAYghZhZGFzaC5tYW4uYWxpeXVuY3MuY29tMA0GCSqGSIb3
DQEBCwUAA4IBAQBzHzIS1HLSMYsBAmfoaqe04l3x2Vq84spiWYlVSg/QvK49Wnzz
5rY7KmrsT4Ew0tCeAfLu9kSv7OoquSNFc+fevmxgda21/md74kBzbZKxS30vn9ui
zBx5XdDXsWrAW/GpSak/nGzo/AdG9Ys7vEDLpa3XqUgxKUTzqx8+1p/ZZrBUwRdE
rgC49sJgtp6njWjsG7GvUOFj9tqEWg2aqIFTVWc+qpHhDuGJw2Ei3r21rpXM9Flp
2mkeZM58FSWdMj5z95izlfSLXfXYyApNCCXGc1/wuI31sLcYBLfzxyCBTg204KmO
Q8lA30NdU+3xKTmaQkH/ZiJmkjcU/UzyRUOc
-----END CERTIFICATE-----
