Certificate:
    Data:
        Version: 3 (0x2)
        Serial Number: 85 (0x55)
        Signature Algorithm: sha256WithRSAEncryption
        Issuer: C=US, ST=California, L=Los Angeles, O=DigiCert Inc, OU=www.digicert.com, CN=DigiCert Global Root CA/emailAddress=www.digicert.com
        Validity
            Not Before: Jun 26 08:08:35 2023 GMT
            Not After : Jun 23 08:08:35 2033 GMT
        Subject: C=US, ST=California, L=Los Angeles, O=DigiCert Inc, OU=www.digicert.com, CN=android.rqd.qq.com/emailAddress=www.digicert.com
        Subject Public Key Info:
            Public Key Algorithm: rsaEncryption
                RSA Public-Key: (1024 bit)
                Modulus:
                    00:ba:ad:4c:09:1a:3c:85:4f:60:d5:93:bc:9e:12:
                    f4:9b:16:e7:8b:d2:28:29:ab:f9:38:99:e1:84:3a:
                    1b:70:6e:a0:5b:ad:f3:4e:65:5c:19:fb:56:89:16:
                    fb:68:36:43:1a:3b:b6:32:4d:63:43:b0:c5:10:69:
                    3d:96:13:7f:aa:e4:74:d4:b3:60:aa:af:5b:c7:56:
                    f6:e1:49:55:d9:92:ba:70:37:73:4c:91:6b:cc:10:
                    8e:58:f2:e2:1b:1b:1e:72:3e:c6:bb:a5:ca:08:d8:
                    bb:23:bb:bf:86:02:de:11:e9:d9:79:6d:60:a6:c6:
                    0c:2c:e3:35:72:f1:76:bf:b5
                Exponent: 65537 (0x10001)
        X509v3 extensions:
            X509v3 Subject Alternative Name: 
                DNS:android.rqd.qq.com
    Signature Algorithm: sha256WithRSAEncryption
         24:03:cb:b7:e9:81:47:e4:7e:ac:ef:74:05:b5:8c:a4:db:ce:
         78:2f:2d:68:29:db:ef:80:9c:02:6a:15:2e:2e:45:8a:44:ee:
         8c:f1:a7:6d:08:0a:47:ac:06:5c:f6:5d:0d:b1:df:aa:03:ff:
         93:8d:d3:13:ba:44:0a:e9:ce:01:1d:b0:66:f1:34:0c:8f:23:
         f5:e0:3b:62:33:db:83:b4:25:2e:99:48:56:11:8f:24:95:b6:
         f8:07:da:ad:0c:fd:ef:82:93:57:e2:0c:d9:af:e6:12:d1:dc:
         b0:d3:1d:13:13:ad:68:ca:97:9f:6c:ac:4a:28:8b:11:50:7a:
         55:36:24:57:b9:af:cb:30:af:c2:c3:69:c3:4b:6e:9e:e6:66:
         35:35:32:e7:b1:97:3d:78:4c:a4:83:f8:0a:c9:93:7b:47:7b:
         98:a9:6f:40:4c:32:54:83:21:f5:b2:4b:16:b8:0f:99:38:98:
         45:ed:7e:9c:2e:55:6f:d7:14:66:9f:c1:a7:68:2c:17:8b:2a:
         e3:07:3d:c5:b4:63:5b:01:1d:f6:82:2e:b5:c5:bf:bd:e5:00:
         96:b5:9b:63:54:6b:5b:ff:c8:fb:f9:3f:d6:c3:05:53:12:e6:
         88:d1:a2:21:52:94:2a:13:7d:cf:15:1f:d2:e9:06:e2:ca:2a:
         a2:24:c7:07
-----BEGIN CERTIFICATE-----
MIIDbzCCAlegAwIBAgIBVTANBgkqhkiG9w0BAQsFADCBrTELMAkGA1UEBhMCVVMx
EzARBgNVBAgMCkNhbGlmb3JuaWExFDASBgNVBAcMC0xvcyBBbmdlbGVzMRUwEwYD
VQQKDAxEaWdpQ2VydCBJbmMxGTAXBgNVBAsMEHd3dy5kaWdpY2VydC5jb20xIDAe
BgNVBAMMF0RpZ2lDZXJ0IEdsb2JhbCBSb290IENBMR8wHQYJKoZIhvcNAQkBFhB3
d3cuZGlnaWNlcnQuY29tMB4XDTIzMDYyNjA4MDgzNVoXDTMzMDYyMzA4MDgzNVow
gagxCzAJBgNVBAYTAlVTMRMwEQYDVQQIDApDYWxpZm9ybmlhMRQwEgYDVQQHDAtM
b3MgQW5nZWxlczEVMBMGA1UECgwMRGlnaUNlcnQgSW5jMRkwFwYDVQQLDBB3d3cu
ZGlnaWNlcnQuY29tMRswGQYDVQQDDBJhbmRyb2lkLnJxZC5xcS5jb20xHzAdBgkq
hkiG9w0BCQEWEHd3dy5kaWdpY2VydC5jb20wgZ8wDQYJKoZIhvcNAQEBBQADgY0A
MIGJAoGBALqtTAkaPIVPYNWTvJ4S9JsW54vSKCmr+TiZ4YQ6G3BuoFut805lXBn7
VokW+2g2Qxo7tjJNY0OwxRBpPZYTf6rkdNSzYKqvW8dW9uFJVdmSunA3c0yRa8wQ
jljy4hsbHnI+xrulygjYuyO7v4YC3hHp2XltYKbGDCzjNXLxdr+1AgMBAAGjITAf
MB0GA1UdEQQWMBSCEmFuZHJvaWQucnFkLnFxLmNvbTANBgkqhkiG9w0BAQsFAAOC
AQEAJAPLt+mBR+R+rO90BbWMpNvOeC8taCnb74CcAmoVLi5FikTujPGnbQgKR6wG
XPZdDbHfqgP/k43TE7pECunOAR2wZvE0DI8j9eA7YjPbg7QlLplIVhGPJJW2+Afa
rQz974KTV+IM2a/mEtHcsNMdExOtaMqXn2ysSiiLEVB6VTYkV7mvyzCvwsNpw0tu
nuZmNTUy57GXPXhMpIP4CsmTe0d7mKlvQEwyVIMh9bJLFrgPmTiYRe1+nC5Vb9cU
Zp/Bp2gsF4sq4wc9xbRjWwEd9oIutcW/veUAlrWbY1RrW//I+/k/1sMFUxLmiNGi
IVKUKhN9zxUf0ukG4soqoiTHBw==
-----END CERTIFICATE-----
