Certificate:
    Data:
        Version: 3 (0x2)
        Serial Number: 56 (0x38)
        Signature Algorithm: sha256WithRSAEncryption
        Issuer: C=US, ST=California, L=Los Angeles, O=DigiCert Inc, OU=www.digicert.com, CN=DigiCert Global Root CA/emailAddress=www.digicert.com
        Validity
            Not Before: Jun 26 08:07:03 2023 GMT
            Not After : Jun 23 08:07:03 2033 GMT
        Subject: C=US, ST=California, L=Los Angeles, O=DigiCert Inc, OU=www.digicert.com, CN=api.tencentmusic.com/emailAddress=www.digicert.com
        Subject Public Key Info:
            Public Key Algorithm: rsaEncryption
                RSA Public-Key: (1024 bit)
                Modulus:
                    00:ba:ad:4c:09:1a:3c:85:4f:60:d5:93:bc:9e:12:
                    f4:9b:16:e7:8b:d2:28:29:ab:f9:38:99:e1:84:3a:
                    1b:70:6e:a0:5b:ad:f3:4e:65:5c:19:fb:56:89:16:
                    fb:68:36:43:1a:3b:b6:32:4d:63:43:b0:c5:10:69:
                    3d:96:13:7f:aa:e4:74:d4:b3:60:aa:af:5b:c7:56:
                    f6:e1:49:55:d9:92:ba:70:37:73:4c:91:6b:cc:10:
                    8e:58:f2:e2:1b:1b:1e:72:3e:c6:bb:a5:ca:08:d8:
                    bb:23:bb:bf:86:02:de:11:e9:d9:79:6d:60:a6:c6:
                    0c:2c:e3:35:72:f1:76:bf:b5
                Exponent: 65537 (0x10001)
        X509v3 extensions:
            X509v3 Subject Alternative Name: 
                DNS:api.tencentmusic.com
    Signature Algorithm: sha256WithRSAEncryption
         b9:fe:28:87:54:9c:4d:48:96:7c:24:2e:6c:7c:df:0b:b7:3b:
         06:fe:75:be:1a:f7:8e:ba:60:d2:57:79:76:52:63:9f:bc:02:
         00:9e:fc:86:17:01:22:ed:58:4e:0b:d6:d6:aa:08:6c:fe:d6:
         2b:0a:da:09:dc:50:36:0b:47:b2:17:6a:ff:79:41:a0:54:41:
         e0:3e:7a:c9:2b:49:66:4f:41:69:f6:ed:e0:b2:4f:d3:d5:a0:
         62:27:50:3a:ae:76:5f:d9:0f:3d:3a:85:e9:18:12:ce:95:2e:
         6e:5c:9b:c0:23:c7:7e:d0:df:06:9b:82:c1:31:52:18:e3:22:
         e9:ce:c7:10:5b:e5:01:ab:17:87:74:c7:85:90:da:d7:cb:d6:
         b4:74:67:a3:58:20:b0:79:73:1e:d2:41:95:19:ad:6b:3b:9d:
         ff:8f:2d:83:a8:b2:cb:5a:b4:f5:c4:89:d8:da:93:6d:ec:d2:
         7b:00:83:a0:a9:49:56:ed:dc:54:81:9f:81:af:cd:0e:76:54:
         64:1f:1f:f1:b1:10:7d:63:e5:6d:85:47:0a:c5:43:99:78:06:
         c3:35:04:71:39:ae:03:e7:9d:7f:ff:17:32:03:63:a0:60:4b:
         93:5a:89:48:6c:c4:43:35:d0:15:ad:d9:5a:46:98:d9:36:3c:
         49:6d:8e:ad
-----BEGIN CERTIFICATE-----
MIIDczCCAlugAwIBAgIBODANBgkqhkiG9w0BAQsFADCBrTELMAkGA1UEBhMCVVMx
EzARBgNVBAgMCkNhbGlmb3JuaWExFDASBgNVBAcMC0xvcyBBbmdlbGVzMRUwEwYD
VQQKDAxEaWdpQ2VydCBJbmMxGTAXBgNVBAsMEHd3dy5kaWdpY2VydC5jb20xIDAe
BgNVBAMMF0RpZ2lDZXJ0IEdsb2JhbCBSb290IENBMR8wHQYJKoZIhvcNAQkBFhB3
d3cuZGlnaWNlcnQuY29tMB4XDTIzMDYyNjA4MDcwM1oXDTMzMDYyMzA4MDcwM1ow
gaoxCzAJBgNVBAYTAlVTMRMwEQYDVQQIDApDYWxpZm9ybmlhMRQwEgYDVQQHDAtM
b3MgQW5nZWxlczEVMBMGA1UECgwMRGlnaUNlcnQgSW5jMRkwFwYDVQQLDBB3d3cu
ZGlnaWNlcnQuY29tMR0wGwYDVQQDDBRhcGkudGVuY2VudG11c2ljLmNvbTEfMB0G
CSqGSIb3DQEJARYQd3d3LmRpZ2ljZXJ0LmNvbTCBnzANBgkqhkiG9w0BAQEFAAOB
jQAwgYkCgYEAuq1MCRo8hU9g1ZO8nhL0mxbni9IoKav5OJnhhDobcG6gW63zTmVc
GftWiRb7aDZDGju2Mk1jQ7DFEGk9lhN/quR01LNgqq9bx1b24UlV2ZK6cDdzTJFr
zBCOWPLiGxsecj7Gu6XKCNi7I7u/hgLeEenZeW1gpsYMLOM1cvF2v7UCAwEAAaMj
MCEwHwYDVR0RBBgwFoIUYXBpLnRlbmNlbnRtdXNpYy5jb20wDQYJKoZIhvcNAQEL
BQADggEBALn+KIdUnE1IlnwkLmx83wu3Owb+db4a9466YNJXeXZSY5+8AgCe/IYX
ASLtWE4L1taqCGz+1isK2gncUDYLR7IXav95QaBUQeA+eskrSWZPQWn27eCyT9PV
oGInUDqudl/ZDz06hekYEs6VLm5cm8Ajx37Q3wabgsExUhjjIunOxxBb5QGrF4d0
x4WQ2tfL1rR0Z6NYILB5cx7SQZUZrWs7nf+PLYOosstatPXEidjak23s0nsAg6Cp
SVbt3FSBn4GvzQ52VGQfH/GxEH1j5W2FRwrFQ5l4BsM1BHE5rgPnnX//FzIDY6Bg
S5NaiUhsxEM10BWt2VpGmNk2PEltjq0=
-----END CERTIFICATE-----
