Certificate:
    Data:
        Version: 3 (0x2)
        Serial Number: 17 (0x11)
        Signature Algorithm: sha256WithRSAEncryption
        Issuer: C=US, ST=California, L=Los Angeles, O=DigiCert Inc, OU=www.digicert.com, CN=DigiCert Global Root CA/emailAddress=www.digicert.com
        Validity
            Not Before: Jun 26 08:05:01 2023 GMT
            Not After : Jun 23 08:05:01 2033 GMT
        Subject: C=US, ST=California, L=Los Angeles, O=DigiCert Inc, OU=www.digicert.com, CN=api26-normal-lq.amemv.com/emailAddress=www.digicert.com
        Subject Public Key Info:
            Public Key Algorithm: rsaEncryption
                RSA Public-Key: (1024 bit)
                Modulus:
                    00:ba:ad:4c:09:1a:3c:85:4f:60:d5:93:bc:9e:12:
                    f4:9b:16:e7:8b:d2:28:29:ab:f9:38:99:e1:84:3a:
                    1b:70:6e:a0:5b:ad:f3:4e:65:5c:19:fb:56:89:16:
                    fb:68:36:43:1a:3b:b6:32:4d:63:43:b0:c5:10:69:
                    3d:96:13:7f:aa:e4:74:d4:b3:60:aa:af:5b:c7:56:
                    f6:e1:49:55:d9:92:ba:70:37:73:4c:91:6b:cc:10:
                    8e:58:f2:e2:1b:1b:1e:72:3e:c6:bb:a5:ca:08:d8:
                    bb:23:bb:bf:86:02:de:11:e9:d9:79:6d:60:a6:c6:
                    0c:2c:e3:35:72:f1:76:bf:b5
                Exponent: 65537 (0x10001)
        X509v3 extensions:
            X509v3 Subject Alternative Name: 
                DNS:api26-normal-lq.amemv.com
    Signature Algorithm: sha256WithRSAEncryption
         0a:53:b8:f9:de:b6:fa:c5:b7:19:3f:12:0a:c0:8a:74:b5:67:
         68:e9:ef:48:11:fe:fc:88:f5:9d:ec:28:45:54:03:a9:73:be:
         1d:8a:a8:ad:76:88:ef:f1:13:3b:ac:d5:0c:c7:02:b5:c2:9a:
         d4:53:aa:bb:f9:56:07:28:7e:2b:a6:c3:e7:88:a2:4d:70:60:
         94:5b:b9:ad:7b:d4:64:bd:f7:33:c8:f4:97:9e:25:ab:a7:21:
         e6:30:1f:21:d9:5c:3d:19:3e:27:f1:0c:23:87:c0:62:6a:26:
         e9:61:16:75:c2:fb:e1:aa:ec:25:9c:a5:c1:cf:0c:4e:0d:db:
         8d:da:6d:43:5b:e5:9d:f3:00:8f:c4:f0:62:f8:a7:6f:d0:ba:
         81:48:d3:d3:4d:94:33:2a:4d:a2:cf:ec:40:98:3a:55:0c:c0:
         1a:45:16:dc:e0:ee:76:78:a8:8f:24:72:ea:a1:ad:b1:a6:53:
         bb:75:72:09:b7:00:67:38:97:ad:36:fc:43:1f:39:ec:cd:f5:
         05:f1:5e:5b:17:2a:71:ca:dc:e3:3a:57:82:55:43:21:9e:aa:
         91:5f:71:20:77:d5:69:16:a8:bd:7d:91:0c:c5:7d:fb:80:17:
         1d:55:f5:9a:2a:a1:6b:bb:6c:93:e7:37:bb:59:b5:14:db:e8:
         14:30:a2:31
-----BEGIN CERTIFICATE-----
MIIDfTCCAmWgAwIBAgIBETANBgkqhkiG9w0BAQsFADCBrTELMAkGA1UEBhMCVVMx
EzARBgNVBAgMCkNhbGlmb3JuaWExFDASBgNVBAcMC0xvcyBBbmdlbGVzMRUwEwYD
VQQKDAxEaWdpQ2VydCBJbmMxGTAXBgNVBAsMEHd3dy5kaWdpY2VydC5jb20xIDAe
BgNVBAMMF0RpZ2lDZXJ0IEdsb2JhbCBSb290IENBMR8wHQYJKoZIhvcNAQkBFhB3
d3cuZGlnaWNlcnQuY29tMB4XDTIzMDYyNjA4MDUwMVoXDTMzMDYyMzA4MDUwMVow
ga8xCzAJBgNVBAYTAlVTMRMwEQYDVQQIDApDYWxpZm9ybmlhMRQwEgYDVQQHDAtM
b3MgQW5nZWxlczEVMBMGA1UECgwMRGlnaUNlcnQgSW5jMRkwFwYDVQQLDBB3d3cu
ZGlnaWNlcnQuY29tMSIwIAYDVQQDDBlhcGkyNi1ub3JtYWwtbHEuYW1lbXYuY29t
MR8wHQYJKoZIhvcNAQkBFhB3d3cuZGlnaWNlcnQuY29tMIGfMA0GCSqGSIb3DQEB
AQUAA4GNADCBiQKBgQC6rUwJGjyFT2DVk7yeEvSbFueL0igpq/k4meGEOhtwbqBb
rfNOZVwZ+1aJFvtoNkMaO7YyTWNDsMUQaT2WE3+q5HTUs2Cqr1vHVvbhSVXZkrpw
N3NMkWvMEI5Y8uIbGx5yPsa7pcoI2Lsju7+GAt4R6dl5bWCmxgws4zVy8Xa/tQID
AQABoygwJjAkBgNVHREEHTAbghlhcGkyNi1ub3JtYWwtbHEuYW1lbXYuY29tMA0G
CSqGSIb3DQEBCwUAA4IBAQAKU7j53rb6xbcZPxIKwIp0tWdo6e9IEf78iPWd7ChF
VAOpc74diqitdojv8RM7rNUMxwK1wprUU6q7+VYHKH4rpsPniKJNcGCUW7mte9Rk
vfczyPSXniWrpyHmMB8h2Vw9GT4n8Qwjh8BiaibpYRZ1wvvhquwlnKXBzwxODduN
2m1DW+Wd8wCPxPBi+Kdv0LqBSNPTTZQzKk2iz+xAmDpVDMAaRRbc4O52eKiPJHLq
oa2xplO7dXIJtwBnOJetNvxDHznszfUF8V5bFypxytzjOleCVUMhnqqRX3Egd9Vp
Fqi9fZEMxX37gBcdVfWaKqFru2yT5ze7WbUU2+gUMKIx
-----END CERTIFICATE-----
