Certificate:
    Data:
        Version: 3 (0x2)
        Serial Number: 15 (0xf)
        Signature Algorithm: sha256WithRSAEncryption
        Issuer: C=US, ST=California, L=Los Angeles, O=DigiCert Inc, OU=www.digicert.com, CN=DigiCert Global Root CA/emailAddress=www.digicert.com
        Validity
            Not Before: Jun 26 08:05:01 2023 GMT
            Not After : Jun 23 08:05:01 2033 GMT
        Subject: C=US, ST=California, L=Los Angeles, O=DigiCert Inc, OU=www.digicert.com, CN=api26-core-lq.amemv.com/emailAddress=www.digicert.com
        Subject Public Key Info:
            Public Key Algorithm: rsaEncryption
                RSA Public-Key: (1024 bit)
                Modulus:
                    00:ba:ad:4c:09:1a:3c:85:4f:60:d5:93:bc:9e:12:
                    f4:9b:16:e7:8b:d2:28:29:ab:f9:38:99:e1:84:3a:
                    1b:70:6e:a0:5b:ad:f3:4e:65:5c:19:fb:56:89:16:
                    fb:68:36:43:1a:3b:b6:32:4d:63:43:b0:c5:10:69:
                    3d:96:13:7f:aa:e4:74:d4:b3:60:aa:af:5b:c7:56:
                    f6:e1:49:55:d9:92:ba:70:37:73:4c:91:6b:cc:10:
                    8e:58:f2:e2:1b:1b:1e:72:3e:c6:bb:a5:ca:08:d8:
                    bb:23:bb:bf:86:02:de:11:e9:d9:79:6d:60:a6:c6:
                    0c:2c:e3:35:72:f1:76:bf:b5
                Exponent: 65537 (0x10001)
        X509v3 extensions:
            X509v3 Subject Alternative Name: 
                DNS:api26-core-lq.amemv.com
    Signature Algorithm: sha256WithRSAEncryption
         0c:c4:79:c4:f0:ee:77:cf:f0:88:e8:c5:2c:0b:8b:17:ff:88:
         d0:d7:af:f8:ac:79:42:7f:83:66:9d:0d:3c:6d:03:c1:b3:15:
         5c:3b:6d:a2:e9:6d:86:49:25:fc:ea:4d:95:01:3a:c5:5d:49:
         f0:50:99:a4:1a:c1:9d:07:b7:bd:e4:97:f2:c0:9f:81:3c:cd:
         b7:2e:80:bb:1c:46:e1:fc:69:16:ee:1e:3e:87:b2:c9:6e:f7:
         d3:4a:7f:8b:f3:5e:77:17:f7:7d:6c:00:d6:25:d7:82:1f:09:
         94:e4:c5:fd:66:43:61:df:3c:18:8b:22:58:bb:a8:4e:20:0d:
         2b:ac:7c:c3:8d:36:91:7e:cc:94:e4:72:7b:74:0c:78:22:5b:
         7a:4d:6a:35:1a:0b:bd:50:c1:bd:a4:94:df:13:9e:91:36:d0:
         5a:f6:7f:9b:09:51:53:ff:ba:35:bf:2f:f4:70:1d:34:62:f9:
         4e:f9:22:08:f2:e3:9d:b3:2b:9b:25:4d:b5:cc:18:88:06:ac:
         07:f4:63:71:af:63:76:fb:f8:f7:f4:3b:50:ab:e7:98:bc:f7:
         d3:8a:db:b3:09:41:d9:20:c8:8a:6e:be:ac:f5:dc:ba:49:f4:
         5a:1f:8d:23:48:95:5e:31:ae:63:18:4e:9b:6a:06:a9:01:db:
         ef:50:a2:8d
-----BEGIN CERTIFICATE-----
MIIDeTCCAmGgAwIBAgIBDzANBgkqhkiG9w0BAQsFADCBrTELMAkGA1UEBhMCVVMx
EzARBgNVBAgMCkNhbGlmb3JuaWExFDASBgNVBAcMC0xvcyBBbmdlbGVzMRUwEwYD
VQQKDAxEaWdpQ2VydCBJbmMxGTAXBgNVBAsMEHd3dy5kaWdpY2VydC5jb20xIDAe
BgNVBAMMF0RpZ2lDZXJ0IEdsb2JhbCBSb290IENBMR8wHQYJKoZIhvcNAQkBFhB3
d3cuZGlnaWNlcnQuY29tMB4XDTIzMDYyNjA4MDUwMVoXDTMzMDYyMzA4MDUwMVow
ga0xCzAJBgNVBAYTAlVTMRMwEQYDVQQIDApDYWxpZm9ybmlhMRQwEgYDVQQHDAtM
b3MgQW5nZWxlczEVMBMGA1UECgwMRGlnaUNlcnQgSW5jMRkwFwYDVQQLDBB3d3cu
ZGlnaWNlcnQuY29tMSAwHgYDVQQDDBdhcGkyNi1jb3JlLWxxLmFtZW12LmNvbTEf
MB0GCSqGSIb3DQEJARYQd3d3LmRpZ2ljZXJ0LmNvbTCBnzANBgkqhkiG9w0BAQEF
AAOBjQAwgYkCgYEAuq1MCRo8hU9g1ZO8nhL0mxbni9IoKav5OJnhhDobcG6gW63z
TmVcGftWiRb7aDZDGju2Mk1jQ7DFEGk9lhN/quR01LNgqq9bx1b24UlV2ZK6cDdz
TJFrzBCOWPLiGxsecj7Gu6XKCNi7I7u/hgLeEenZeW1gpsYMLOM1cvF2v7UCAwEA
AaMmMCQwIgYDVR0RBBswGYIXYXBpMjYtY29yZS1scS5hbWVtdi5jb20wDQYJKoZI
hvcNAQELBQADggEBAAzEecTw7nfP8IjoxSwLixf/iNDXr/iseUJ/g2adDTxtA8Gz
FVw7baLpbYZJJfzqTZUBOsVdSfBQmaQawZ0Ht73kl/LAn4E8zbcugLscRuH8aRbu
Hj6Hsslu99NKf4vzXncX931sANYl14IfCZTkxf1mQ2HfPBiLIli7qE4gDSusfMON
NpF+zJTkcnt0DHgiW3pNajUaC71Qwb2klN8TnpE20Fr2f5sJUVP/ujW/L/RwHTRi
+U75Igjy452zK5slTbXMGIgGrAf0Y3GvY3b7+Pf0O1Cr55i899OK27MJQdkgyIpu
vqz13LpJ9FofjSNIlV4xrmMYTptqBqkB2+9Qoo0=
-----END CERTIFICATE-----
