Certificate:
    Data:
        Version: 3 (0x2)
        Serial Number: 54 (0x36)
        Signature Algorithm: sha256WithRSAEncryption
        Issuer: C=US, ST=California, L=Los Angeles, O=DigiCert Inc, OU=www.digicert.com, CN=DigiCert Global Root CA/emailAddress=www.digicert.com
        Validity
            Not Before: Jun 26 08:06:58 2023 GMT
            Not After : Jun 23 08:06:58 2033 GMT
        Subject: C=US, ST=California, L=Los Angeles, O=DigiCert Inc, OU=www.digicert.com, CN=audid-api.taobao.com/emailAddress=www.digicert.com
        Subject Public Key Info:
            Public Key Algorithm: rsaEncryption
                RSA Public-Key: (1024 bit)
                Modulus:
                    00:ba:ad:4c:09:1a:3c:85:4f:60:d5:93:bc:9e:12:
                    f4:9b:16:e7:8b:d2:28:29:ab:f9:38:99:e1:84:3a:
                    1b:70:6e:a0:5b:ad:f3:4e:65:5c:19:fb:56:89:16:
                    fb:68:36:43:1a:3b:b6:32:4d:63:43:b0:c5:10:69:
                    3d:96:13:7f:aa:e4:74:d4:b3:60:aa:af:5b:c7:56:
                    f6:e1:49:55:d9:92:ba:70:37:73:4c:91:6b:cc:10:
                    8e:58:f2:e2:1b:1b:1e:72:3e:c6:bb:a5:ca:08:d8:
                    bb:23:bb:bf:86:02:de:11:e9:d9:79:6d:60:a6:c6:
                    0c:2c:e3:35:72:f1:76:bf:b5
                Exponent: 65537 (0x10001)
        X509v3 extensions:
            X509v3 Subject Alternative Name: 
                DNS:audid-api.taobao.com
    Signature Algorithm: sha256WithRSAEncryption
         97:8b:b7:b9:d6:00:7d:90:29:a6:dd:df:1c:d3:c1:7d:c3:c8:
         8b:ec:1e:4c:fc:b4:98:b3:58:2a:26:9f:0b:ba:f5:83:a6:87:
         e2:4f:25:10:2e:c9:65:4a:4b:4c:7e:fc:62:ba:af:0a:d1:40:
         70:ae:6f:16:ba:5a:e2:c9:af:20:50:e1:00:e9:c7:2f:c8:cd:
         93:bf:2c:70:70:8b:9d:90:6c:25:11:21:f5:5d:3a:66:b4:ed:
         77:85:d5:38:85:c5:88:b8:1a:88:32:9d:29:bf:35:0c:d8:b1:
         83:49:f3:9b:3f:7a:19:e5:f2:0e:2e:64:fe:3e:6d:73:c1:67:
         43:ae:52:7e:bb:bd:b0:62:6e:5f:c0:b1:90:e0:36:43:84:6a:
         c5:e5:5f:a1:07:50:08:39:53:0b:06:23:ce:65:c9:1a:ea:90:
         8f:60:9d:77:3b:30:03:80:04:df:8f:a5:f7:42:23:e6:41:18:
         42:99:7b:0b:2c:9e:cc:11:a9:1d:27:43:d3:bb:11:2f:6b:f0:
         29:9a:b7:df:2f:e7:ed:5c:ec:01:3a:21:71:8f:69:3a:50:95:
         d6:47:4d:2d:a3:ca:6c:8b:24:cc:c1:14:db:58:ae:1e:9f:87:
         dd:69:e6:9c:e3:33:30:d9:c7:48:c1:fd:93:26:c4:8a:8f:84:
         a5:ba:d4:02
-----BEGIN CERTIFICATE-----
MIIDczCCAlugAwIBAgIBNjANBgkqhkiG9w0BAQsFADCBrTELMAkGA1UEBhMCVVMx
EzARBgNVBAgMCkNhbGlmb3JuaWExFDASBgNVBAcMC0xvcyBBbmdlbGVzMRUwEwYD
VQQKDAxEaWdpQ2VydCBJbmMxGTAXBgNVBAsMEHd3dy5kaWdpY2VydC5jb20xIDAe
BgNVBAMMF0RpZ2lDZXJ0IEdsb2JhbCBSb290IENBMR8wHQYJKoZIhvcNAQkBFhB3
d3cuZGlnaWNlcnQuY29tMB4XDTIzMDYyNjA4MDY1OFoXDTMzMDYyMzA4MDY1OFow
gaoxCzAJBgNVBAYTAlVTMRMwEQYDVQQIDApDYWxpZm9ybmlhMRQwEgYDVQQHDAtM
b3MgQW5nZWxlczEVMBMGA1UECgwMRGlnaUNlcnQgSW5jMRkwFwYDVQQLDBB3d3cu
ZGlnaWNlcnQuY29tMR0wGwYDVQQDDBRhdWRpZC1hcGkudGFvYmFvLmNvbTEfMB0G
CSqGSIb3DQEJARYQd3d3LmRpZ2ljZXJ0LmNvbTCBnzANBgkqhkiG9w0BAQEFAAOB
jQAwgYkCgYEAuq1MCRo8hU9g1ZO8nhL0mxbni9IoKav5OJnhhDobcG6gW63zTmVc
GftWiRb7aDZDGju2Mk1jQ7DFEGk9lhN/quR01LNgqq9bx1b24UlV2ZK6cDdzTJFr
zBCOWPLiGxsecj7Gu6XKCNi7I7u/hgLeEenZeW1gpsYMLOM1cvF2v7UCAwEAAaMj
MCEwHwYDVR0RBBgwFoIUYXVkaWQtYXBpLnRhb2Jhby5jb20wDQYJKoZIhvcNAQEL
BQADggEBAJeLt7nWAH2QKabd3xzTwX3DyIvsHkz8tJizWComnwu69YOmh+JPJRAu
yWVKS0x+/GK6rwrRQHCubxa6WuLJryBQ4QDpxy/IzZO/LHBwi52QbCURIfVdOma0
7XeF1TiFxYi4GogynSm/NQzYsYNJ85s/ehnl8g4uZP4+bXPBZ0OuUn67vbBibl/A
sZDgNkOEasXlX6EHUAg5UwsGI85lyRrqkI9gnXc7MAOABN+PpfdCI+ZBGEKZewss
nswRqR0nQ9O7ES9r8Cmat98v5+1c7AE6IXGPaTpQldZHTS2jymyLJMzBFNtYrh6f
h91p5pzjMzDZx0jB/ZMmxIqPhKW61AI=
-----END CERTIFICATE-----
