Certificate:
    Data:
        Version: 3 (0x2)
        Serial Number: 11 (0xb)
        Signature Algorithm: sha256WithRSAEncryption
        Issuer: C=US, ST=California, L=Los Angeles, O=DigiCert Inc, OU=www.digicert.com, CN=DigiCert Global Root CA/emailAddress=www.digicert.com
        Validity
            Not Before: Jun 26 08:04:44 2023 GMT
            Not After : Jun 23 08:04:44 2033 GMT
        Subject: C=US, ST=California, L=Los Angeles, O=DigiCert Inc, OU=www.digicert.com, CN=configsvr.msf.3g.qq.com/emailAddress=www.digicert.com
        Subject Public Key Info:
            Public Key Algorithm: rsaEncryption
                RSA Public-Key: (1024 bit)
                Modulus:
                    00:ba:ad:4c:09:1a:3c:85:4f:60:d5:93:bc:9e:12:
                    f4:9b:16:e7:8b:d2:28:29:ab:f9:38:99:e1:84:3a:
                    1b:70:6e:a0:5b:ad:f3:4e:65:5c:19:fb:56:89:16:
                    fb:68:36:43:1a:3b:b6:32:4d:63:43:b0:c5:10:69:
                    3d:96:13:7f:aa:e4:74:d4:b3:60:aa:af:5b:c7:56:
                    f6:e1:49:55:d9:92:ba:70:37:73:4c:91:6b:cc:10:
                    8e:58:f2:e2:1b:1b:1e:72:3e:c6:bb:a5:ca:08:d8:
                    bb:23:bb:bf:86:02:de:11:e9:d9:79:6d:60:a6:c6:
                    0c:2c:e3:35:72:f1:76:bf:b5
                Exponent: 65537 (0x10001)
        X509v3 extensions:
            X509v3 Subject Alternative Name: 
                DNS:configsvr.msf.3g.qq.com
    Signature Algorithm: sha256WithRSAEncryption
         69:df:c4:c9:56:6d:9f:e1:50:ec:45:85:6e:db:73:5b:98:77:
         e4:53:2a:77:cc:6a:c7:5c:22:80:ad:e3:a5:9c:ce:77:96:71:
         0f:2c:e4:21:39:07:36:a4:f3:f5:bf:e0:0f:36:e3:2a:be:a0:
         26:cc:04:df:f1:de:91:bd:ce:9b:f1:fc:ef:0a:36:76:a0:c6:
         6f:26:44:24:4f:ca:9d:2c:75:ef:82:3e:23:70:5e:48:b5:44:
         7a:7d:2e:72:f2:62:21:b9:2b:b1:cf:01:e2:12:af:c9:2d:7b:
         44:6d:49:96:50:a2:2b:34:ea:5a:83:ca:8b:e4:65:76:e9:c9:
         18:d9:9a:70:a2:1e:f4:bc:9d:25:34:17:2d:6d:7d:56:19:fe:
         6d:5c:e4:22:6a:be:e0:eb:a6:05:03:8a:8d:87:ff:e7:82:54:
         b0:59:34:1e:07:e3:3a:20:95:e6:12:98:00:19:01:78:dd:b5:
         4e:12:58:36:1a:57:00:c7:09:37:30:f3:0b:9f:59:59:db:ee:
         64:11:af:44:72:14:a9:85:78:e3:c0:90:cd:b8:6e:3f:0e:11:
         fd:62:1b:3d:a5:bd:4d:c9:e1:99:0f:27:3a:6b:5f:e3:ea:c7:
         92:0a:35:ab:67:90:f9:da:c4:38:9d:4d:63:c0:51:45:37:ef:
         61:4e:a9:e0
-----BEGIN CERTIFICATE-----
MIIDeTCCAmGgAwIBAgIBCzANBgkqhkiG9w0BAQsFADCBrTELMAkGA1UEBhMCVVMx
EzARBgNVBAgMCkNhbGlmb3JuaWExFDASBgNVBAcMC0xvcyBBbmdlbGVzMRUwEwYD
VQQKDAxEaWdpQ2VydCBJbmMxGTAXBgNVBAsMEHd3dy5kaWdpY2VydC5jb20xIDAe
BgNVBAMMF0RpZ2lDZXJ0IEdsb2JhbCBSb290IENBMR8wHQYJKoZIhvcNAQkBFhB3
d3cuZGlnaWNlcnQuY29tMB4XDTIzMDYyNjA4MDQ0NFoXDTMzMDYyMzA4MDQ0NFow
ga0xCzAJBgNVBAYTAlVTMRMwEQYDVQQIDApDYWxpZm9ybmlhMRQwEgYDVQQHDAtM
b3MgQW5nZWxlczEVMBMGA1UECgwMRGlnaUNlcnQgSW5jMRkwFwYDVQQLDBB3d3cu
ZGlnaWNlcnQuY29tMSAwHgYDVQQDDBdjb25maWdzdnIubXNmLjNnLnFxLmNvbTEf
MB0GCSqGSIb3DQEJARYQd3d3LmRpZ2ljZXJ0LmNvbTCBnzANBgkqhkiG9w0BAQEF
AAOBjQAwgYkCgYEAuq1MCRo8hU9g1ZO8nhL0mxbni9IoKav5OJnhhDobcG6gW63z
TmVcGftWiRb7aDZDGju2Mk1jQ7DFEGk9lhN/quR01LNgqq9bx1b24UlV2ZK6cDdz
TJFrzBCOWPLiGxsecj7Gu6XKCNi7I7u/hgLeEenZeW1gpsYMLOM1cvF2v7UCAwEA
AaMmMCQwIgYDVR0RBBswGYIXY29uZmlnc3ZyLm1zZi4zZy5xcS5jb20wDQYJKoZI
hvcNAQELBQADggEBAGnfxMlWbZ/hUOxFhW7bc1uYd+RTKnfMasdcIoCt46WczneW
cQ8s5CE5Bzak8/W/4A824yq+oCbMBN/x3pG9zpvx/O8KNnagxm8mRCRPyp0sde+C
PiNwXki1RHp9LnLyYiG5K7HPAeISr8kte0RtSZZQois06lqDyovkZXbpyRjZmnCi
HvS8nSU0Fy1tfVYZ/m1c5CJqvuDrpgUDio2H/+eCVLBZNB4H4zogleYSmAAZAXjd
tU4SWDYaVwDHCTcw8wufWVnb7mQRr0RyFKmFeOPAkM24bj8OEf1iGz2lvU3J4ZkP
JzprX+Pqx5IKNatnkPnaxDidTWPAUUU372FOqeA=
-----END CERTIFICATE-----
