Certificate:
    Data:
        Version: 3 (0x2)
        Serial Number: 38 (0x26)
        Signature Algorithm: sha256WithRSAEncryption
        Issuer: C=US, ST=California, L=Los Angeles, O=DigiCert Inc, OU=www.digicert.com, CN=DigiCert Global Root CA/emailAddress=www.digicert.com
        Validity
            Not Before: Jun 26 08:05:15 2023 GMT
            Not After : Jun 23 08:05:15 2033 GMT
        Subject: C=US, ST=California, L=Los Angeles, O=DigiCert Inc, OU=www.digicert.com, CN=config2.cmpassport.com/emailAddress=www.digicert.com
        Subject Public Key Info:
            Public Key Algorithm: rsaEncryption
                RSA Public-Key: (1024 bit)
                Modulus:
                    00:ba:ad:4c:09:1a:3c:85:4f:60:d5:93:bc:9e:12:
                    f4:9b:16:e7:8b:d2:28:29:ab:f9:38:99:e1:84:3a:
                    1b:70:6e:a0:5b:ad:f3:4e:65:5c:19:fb:56:89:16:
                    fb:68:36:43:1a:3b:b6:32:4d:63:43:b0:c5:10:69:
                    3d:96:13:7f:aa:e4:74:d4:b3:60:aa:af:5b:c7:56:
                    f6:e1:49:55:d9:92:ba:70:37:73:4c:91:6b:cc:10:
                    8e:58:f2:e2:1b:1b:1e:72:3e:c6:bb:a5:ca:08:d8:
                    bb:23:bb:bf:86:02:de:11:e9:d9:79:6d:60:a6:c6:
                    0c:2c:e3:35:72:f1:76:bf:b5
                Exponent: 65537 (0x10001)
        X509v3 extensions:
            X509v3 Subject Alternative Name: 
                DNS:config2.cmpassport.com
    Signature Algorithm: sha256WithRSAEncryption
         90:7f:01:aa:15:fe:df:7f:50:b5:bc:0b:ab:36:42:99:ee:28:
         d5:d0:03:88:6e:e6:64:63:25:44:46:95:47:99:36:f5:d8:66:
         f1:20:3b:84:b6:35:26:fd:a1:60:0f:03:00:71:f3:9f:5b:34:
         08:3e:5d:76:13:28:45:a1:3d:c8:43:d1:7e:68:2d:93:db:c3:
         37:37:eb:5a:19:54:c2:6e:fa:4b:3e:da:b2:9d:7e:81:69:15:
         db:cd:63:cf:6a:e6:4b:df:39:e1:5c:f2:82:37:9c:7d:1e:eb:
         65:83:19:56:e3:8a:9a:a1:ec:98:68:43:37:f3:96:90:10:01:
         a1:33:93:21:d5:48:6d:c8:a8:49:05:69:ec:4d:92:bc:de:cc:
         dd:3c:e2:66:cd:a3:79:b2:1f:f7:f6:83:e3:0f:44:25:91:8f:
         c9:13:7b:e7:87:a0:19:63:75:0b:45:24:31:88:f9:82:de:3a:
         17:5a:96:2e:f8:d3:3e:2d:50:49:22:68:47:b5:cd:fa:c2:68:
         6c:32:a9:e4:85:a9:e5:98:2c:c1:16:42:bc:50:00:8f:63:0d:
         b4:f9:96:c1:2d:8e:0d:a5:8e:06:ca:59:0d:43:ba:5b:a5:d8:
         c5:88:cd:90:c9:a6:3a:cf:f0:33:18:7d:e6:0a:06:6b:79:2d:
         97:92:c3:16
-----BEGIN CERTIFICATE-----
MIIDdzCCAl+gAwIBAgIBJjANBgkqhkiG9w0BAQsFADCBrTELMAkGA1UEBhMCVVMx
EzARBgNVBAgMCkNhbGlmb3JuaWExFDASBgNVBAcMC0xvcyBBbmdlbGVzMRUwEwYD
VQQKDAxEaWdpQ2VydCBJbmMxGTAXBgNVBAsMEHd3dy5kaWdpY2VydC5jb20xIDAe
BgNVBAMMF0RpZ2lDZXJ0IEdsb2JhbCBSb290IENBMR8wHQYJKoZIhvcNAQkBFhB3
d3cuZGlnaWNlcnQuY29tMB4XDTIzMDYyNjA4MDUxNVoXDTMzMDYyMzA4MDUxNVow
gawxCzAJBgNVBAYTAlVTMRMwEQYDVQQIDApDYWxpZm9ybmlhMRQwEgYDVQQHDAtM
b3MgQW5nZWxlczEVMBMGA1UECgwMRGlnaUNlcnQgSW5jMRkwFwYDVQQLDBB3d3cu
ZGlnaWNlcnQuY29tMR8wHQYDVQQDDBZjb25maWcyLmNtcGFzc3BvcnQuY29tMR8w
HQYJKoZIhvcNAQkBFhB3d3cuZGlnaWNlcnQuY29tMIGfMA0GCSqGSIb3DQEBAQUA
A4GNADCBiQKBgQC6rUwJGjyFT2DVk7yeEvSbFueL0igpq/k4meGEOhtwbqBbrfNO
ZVwZ+1aJFvtoNkMaO7YyTWNDsMUQaT2WE3+q5HTUs2Cqr1vHVvbhSVXZkrpwN3NM
kWvMEI5Y8uIbGx5yPsa7pcoI2Lsju7+GAt4R6dl5bWCmxgws4zVy8Xa/tQIDAQAB
oyUwIzAhBgNVHREEGjAYghZjb25maWcyLmNtcGFzc3BvcnQuY29tMA0GCSqGSIb3
DQEBCwUAA4IBAQCQfwGqFf7ff1C1vAurNkKZ7ijV0AOIbuZkYyVERpVHmTb12Gbx
IDuEtjUm/aFgDwMAcfOfWzQIPl12EyhFoT3IQ9F+aC2T28M3N+taGVTCbvpLPtqy
nX6BaRXbzWPPauZL3znhXPKCN5x9HutlgxlW44qaoeyYaEM385aQEAGhM5Mh1Uht
yKhJBWnsTZK83szdPOJmzaN5sh/39oPjD0QlkY/JE3vnh6AZY3ULRSQxiPmC3joX
WpYu+NM+LVBJImhHtc36wmhsMqnkhanlmCzBFkK8UACPYw20+ZbBLY4NpY4GylkN
Q7pbpdjFiM2QyaY6z/AzGH3mCgZreS2XksMW
-----END CERTIFICATE-----
