Certificate:
    Data:
        Version: 3 (0x2)
        Serial Number: 26 (0x1a)
        Signature Algorithm: sha256WithRSAEncryption
        Issuer: C=US, ST=California, L=Los Angeles, O=DigiCert Inc, OU=www.digicert.com, CN=DigiCert Global Root CA/emailAddress=www.digicert.com
        Validity
            Not Before: Jun 26 08:05:05 2023 GMT
            Not After : Jun 23 08:05:05 2033 GMT
        Subject: C=US, ST=California, L=Los Angeles, O=DigiCert Inc, OU=www.digicert.com, CN=ec5-core-lq.ecombdapi.com/emailAddress=www.digicert.com
        Subject Public Key Info:
            Public Key Algorithm: rsaEncryption
                RSA Public-Key: (1024 bit)
                Modulus:
                    00:ba:ad:4c:09:1a:3c:85:4f:60:d5:93:bc:9e:12:
                    f4:9b:16:e7:8b:d2:28:29:ab:f9:38:99:e1:84:3a:
                    1b:70:6e:a0:5b:ad:f3:4e:65:5c:19:fb:56:89:16:
                    fb:68:36:43:1a:3b:b6:32:4d:63:43:b0:c5:10:69:
                    3d:96:13:7f:aa:e4:74:d4:b3:60:aa:af:5b:c7:56:
                    f6:e1:49:55:d9:92:ba:70:37:73:4c:91:6b:cc:10:
                    8e:58:f2:e2:1b:1b:1e:72:3e:c6:bb:a5:ca:08:d8:
                    bb:23:bb:bf:86:02:de:11:e9:d9:79:6d:60:a6:c6:
                    0c:2c:e3:35:72:f1:76:bf:b5
                Exponent: 65537 (0x10001)
        X509v3 extensions:
            X509v3 Subject Alternative Name: 
                DNS:ec5-core-lq.ecombdapi.com
    Signature Algorithm: sha256WithRSAEncryption
         2c:81:b3:4a:85:0b:96:e1:a9:c7:d2:72:c8:a7:8e:40:9c:65:
         b0:15:b1:8e:22:26:7c:b7:10:a6:a3:c3:71:ff:e6:16:73:dc:
         ab:68:87:49:e5:d8:32:c8:0e:e0:55:75:f2:ad:4e:3b:4c:30:
         95:8b:2d:f7:f6:27:6b:bb:8a:07:b1:a5:74:fd:b0:69:cd:aa:
         20:01:65:70:28:52:57:1b:9e:1c:37:24:93:3c:25:65:7e:59:
         98:34:4d:4f:cf:26:7a:ec:97:44:f2:af:ed:9a:6b:37:58:0f:
         e1:e4:fa:8b:7c:06:d9:c3:e3:f0:e5:39:7c:bc:d1:6d:a9:13:
         91:86:81:81:29:d2:22:3b:cf:f7:40:2a:82:d8:8d:99:0b:23:
         aa:6c:24:d4:76:8b:e9:73:50:bc:30:ef:83:f3:e7:20:82:91:
         8e:dd:e2:56:3a:fc:ea:bc:ac:a3:b0:0e:bd:4f:70:d8:9e:a3:
         4c:e3:9a:ad:5f:77:42:d7:da:21:ed:84:20:0a:b3:67:cb:52:
         78:31:48:73:78:0b:74:da:6e:ff:b8:7a:54:47:2a:25:a6:00:
         04:7e:da:02:38:02:12:67:94:4b:12:07:c2:f7:7c:46:cd:59:
         32:13:c7:a9:c3:76:a2:b9:f4:7d:69:72:66:43:8a:b7:18:dd:
         84:12:46:ee
-----BEGIN CERTIFICATE-----
MIIDfTCCAmWgAwIBAgIBGjANBgkqhkiG9w0BAQsFADCBrTELMAkGA1UEBhMCVVMx
EzARBgNVBAgMCkNhbGlmb3JuaWExFDASBgNVBAcMC0xvcyBBbmdlbGVzMRUwEwYD
VQQKDAxEaWdpQ2VydCBJbmMxGTAXBgNVBAsMEHd3dy5kaWdpY2VydC5jb20xIDAe
BgNVBAMMF0RpZ2lDZXJ0IEdsb2JhbCBSb290IENBMR8wHQYJKoZIhvcNAQkBFhB3
d3cuZGlnaWNlcnQuY29tMB4XDTIzMDYyNjA4MDUwNVoXDTMzMDYyMzA4MDUwNVow
ga8xCzAJBgNVBAYTAlVTMRMwEQYDVQQIDApDYWxpZm9ybmlhMRQwEgYDVQQHDAtM
b3MgQW5nZWxlczEVMBMGA1UECgwMRGlnaUNlcnQgSW5jMRkwFwYDVQQLDBB3d3cu
ZGlnaWNlcnQuY29tMSIwIAYDVQQDDBllYzUtY29yZS1scS5lY29tYmRhcGkuY29t
MR8wHQYJKoZIhvcNAQkBFhB3d3cuZGlnaWNlcnQuY29tMIGfMA0GCSqGSIb3DQEB
AQUAA4GNADCBiQKBgQC6rUwJGjyFT2DVk7yeEvSbFueL0igpq/k4meGEOhtwbqBb
rfNOZVwZ+1aJFvtoNkMaO7YyTWNDsMUQaT2WE3+q5HTUs2Cqr1vHVvbhSVXZkrpw
N3NMkWvMEI5Y8uIbGx5yPsa7pcoI2Lsju7+GAt4R6dl5bWCmxgws4zVy8Xa/tQID
AQABoygwJjAkBgNVHREEHTAbghllYzUtY29yZS1scS5lY29tYmRhcGkuY29tMA0G
CSqGSIb3DQEBCwUAA4IBAQAsgbNKhQuW4anH0nLIp45AnGWwFbGOIiZ8txCmo8Nx
/+YWc9yraIdJ5dgyyA7gVXXyrU47TDCViy339idru4oHsaV0/bBpzaogAWVwKFJX
G54cNySTPCVlflmYNE1PzyZ67JdE8q/tmms3WA/h5PqLfAbZw+Pw5Tl8vNFtqROR
hoGBKdIiO8/3QCqC2I2ZCyOqbCTUdovpc1C8MO+D8+cggpGO3eJWOvzqvKyjsA69
T3DYnqNM45qtX3dC19oh7YQgCrNny1J4MUhzeAt02m7/uHpURyolpgAEftoCOAIS
Z5RLEgfC93xGzVkyE8epw3aiufR9aXJmQ4q3GN2EEkbu
-----END CERTIFICATE-----
