Certificate:
    Data:
        Version: 3 (0x2)
        Serial Number: 25 (0x19)
    Signature Algorithm: sha256WithRSAEncryption
        Issuer: C=US, ST=California, L=Los Angeles, O=DigiCert Inc, OU=www.digicert.com, CN=DigiCert Global Root CA/emailAddress=www.digicert.com
        Validity
            Not Before: Jun 15 16:15:10 2021 GMT
            Not After : Jun 13 16:15:10 2031 GMT
        Subject: C=US, ST=California, L=Los Angeles, O=DigiCert Inc, OU=www.digicert.com, CN=eclick.baidu.com/emailAddress=www.digicert.com
        Subject Public Key Info:
            Public Key Algorithm: rsaEncryption
                Public-Key: (1024 bit)
                Modulus:
                    00:ba:ad:4c:09:1a:3c:85:4f:60:d5:93:bc:9e:12:
                    f4:9b:16:e7:8b:d2:28:29:ab:f9:38:99:e1:84:3a:
                    1b:70:6e:a0:5b:ad:f3:4e:65:5c:19:fb:56:89:16:
                    fb:68:36:43:1a:3b:b6:32:4d:63:43:b0:c5:10:69:
                    3d:96:13:7f:aa:e4:74:d4:b3:60:aa:af:5b:c7:56:
                    f6:e1:49:55:d9:92:ba:70:37:73:4c:91:6b:cc:10:
                    8e:58:f2:e2:1b:1b:1e:72:3e:c6:bb:a5:ca:08:d8:
                    bb:23:bb:bf:86:02:de:11:e9:d9:79:6d:60:a6:c6:
                    0c:2c:e3:35:72:f1:76:bf:b5
                Exponent: 65537 (0x10001)
        X509v3 extensions:
            X509v3 Subject Alternative Name: 
                DNS:eclick.baidu.com
    Signature Algorithm: sha256WithRSAEncryption
         b4:80:6d:9d:70:a2:d1:09:18:8f:4a:f7:f6:70:ec:c6:65:33:
         ef:e1:f9:c7:f8:ba:b0:6b:28:18:f5:d9:58:53:c4:95:dc:9c:
         4f:53:d8:82:65:28:de:b0:34:b2:b7:fd:c3:09:31:a6:80:9a:
         21:64:63:ef:f6:7c:4a:db:d9:93:a0:80:55:75:f1:24:b0:07:
         ff:2b:e3:99:90:fe:5b:ae:40:82:ef:5b:91:0b:02:93:98:4f:
         d2:76:c1:d2:0a:2c:8b:92:0f:1a:fe:0d:8c:d6:25:f4:a9:31:
         da:5f:56:b0:0b:69:0b:c9:e5:9b:f2:6d:05:b8:b9:1e:90:93:
         1e:13:33:ad:db:49:31:7e:30:8c:a1:98:da:d9:8a:3b:7c:8c:
         d3:d3:22:ae:27:ea:e0:18:e0:2c:d2:fd:d3:c6:df:70:d7:b3:
         7c:22:67:0c:4f:02:24:7c:66:d1:5b:65:ad:67:6b:da:2a:ee:
         7b:06:3e:50:ef:9f:ce:92:ae:2e:79:ee:4b:4a:f9:14:01:e5:
         6d:f4:03:ee:5c:e6:b3:5b:37:bd:e5:3e:1e:29:c2:2d:65:e1:
         41:8f:32:56:f6:de:0d:36:5a:bb:62:b3:2a:71:ef:9d:0e:ab:
         1e:c9:93:77:64:c4:6f:e7:06:e3:7a:69:9c:22:60:28:1f:2e:
         71:39:7d:aa
-----BEGIN CERTIFICATE-----
MIIDazCCAlOgAwIBAgIBGTANBgkqhkiG9w0BAQsFADCBrTELMAkGA1UEBhMCVVMx
EzARBgNVBAgMCkNhbGlmb3JuaWExFDASBgNVBAcMC0xvcyBBbmdlbGVzMRUwEwYD
VQQKDAxEaWdpQ2VydCBJbmMxGTAXBgNVBAsMEHd3dy5kaWdpY2VydC5jb20xIDAe
BgNVBAMMF0RpZ2lDZXJ0IEdsb2JhbCBSb290IENBMR8wHQYJKoZIhvcNAQkBFhB3
d3cuZGlnaWNlcnQuY29tMB4XDTIxMDYxNTE2MTUxMFoXDTMxMDYxMzE2MTUxMFow
gaYxCzAJBgNVBAYTAlVTMRMwEQYDVQQIDApDYWxpZm9ybmlhMRQwEgYDVQQHDAtM
b3MgQW5nZWxlczEVMBMGA1UECgwMRGlnaUNlcnQgSW5jMRkwFwYDVQQLDBB3d3cu
ZGlnaWNlcnQuY29tMRkwFwYDVQQDDBBlY2xpY2suYmFpZHUuY29tMR8wHQYJKoZI
hvcNAQkBFhB3d3cuZGlnaWNlcnQuY29tMIGfMA0GCSqGSIb3DQEBAQUAA4GNADCB
iQKBgQC6rUwJGjyFT2DVk7yeEvSbFueL0igpq/k4meGEOhtwbqBbrfNOZVwZ+1aJ
FvtoNkMaO7YyTWNDsMUQaT2WE3+q5HTUs2Cqr1vHVvbhSVXZkrpwN3NMkWvMEI5Y
8uIbGx5yPsa7pcoI2Lsju7+GAt4R6dl5bWCmxgws4zVy8Xa/tQIDAQABox8wHTAb
BgNVHREEFDASghBlY2xpY2suYmFpZHUuY29tMA0GCSqGSIb3DQEBCwUAA4IBAQC0
gG2dcKLRCRiPSvf2cOzGZTPv4fnH+LqwaygY9dlYU8SV3JxPU9iCZSjesDSyt/3D
CTGmgJohZGPv9nxK29mToIBVdfEksAf/K+OZkP5brkCC71uRCwKTmE/SdsHSCiyL
kg8a/g2M1iX0qTHaX1awC2kLyeWb8m0FuLkekJMeEzOt20kxfjCMoZja2Yo7fIzT
0yKuJ+rgGOAs0v3Txt9w17N8ImcMTwIkfGbRW2WtZ2vaKu57Bj5Q75/Okq4uee5L
SvkUAeVt9APuXOazWze95T4eKcItZeFBjzJW9t4NNlq7YrMqce+dDqseyZN3ZMRv
5wbjemmcImAoHy5xOX2q
-----END CERTIFICATE-----
