Certificate:
    Data:
        Version: 3 (0x2)
        Serial Number: 27 (0x1b)
        Signature Algorithm: sha256WithRSAEncryption
        Issuer: C=US, ST=California, L=Los Angeles, O=DigiCert Inc, OU=www.digicert.com, CN=DigiCert Global Root CA/emailAddress=www.digicert.com
        Validity
            Not Before: Jun 26 08:05:05 2023 GMT
            Not After : Jun 23 08:05:05 2033 GMT
        Subject: C=US, ST=California, L=Los Angeles, O=DigiCert Inc, OU=www.digicert.com, CN=ecom5-normal-lq.ecombdapi.com/emailAddress=www.digicert.com
        Subject Public Key Info:
            Public Key Algorithm: rsaEncryption
                RSA Public-Key: (1024 bit)
                Modulus:
                    00:ba:ad:4c:09:1a:3c:85:4f:60:d5:93:bc:9e:12:
                    f4:9b:16:e7:8b:d2:28:29:ab:f9:38:99:e1:84:3a:
                    1b:70:6e:a0:5b:ad:f3:4e:65:5c:19:fb:56:89:16:
                    fb:68:36:43:1a:3b:b6:32:4d:63:43:b0:c5:10:69:
                    3d:96:13:7f:aa:e4:74:d4:b3:60:aa:af:5b:c7:56:
                    f6:e1:49:55:d9:92:ba:70:37:73:4c:91:6b:cc:10:
                    8e:58:f2:e2:1b:1b:1e:72:3e:c6:bb:a5:ca:08:d8:
                    bb:23:bb:bf:86:02:de:11:e9:d9:79:6d:60:a6:c6:
                    0c:2c:e3:35:72:f1:76:bf:b5
                Exponent: 65537 (0x10001)
        X509v3 extensions:
            X509v3 Subject Alternative Name: 
                DNS:ecom5-normal-lq.ecombdapi.com
    Signature Algorithm: sha256WithRSAEncryption
         2f:30:0c:57:09:2f:2e:f0:e8:8c:97:72:df:db:e4:42:78:5d:
         e5:aa:11:b0:a3:42:91:7c:cc:c0:9e:ef:c9:01:a9:1f:95:3b:
         70:53:6a:d5:bd:87:51:14:02:f4:ef:80:ac:f4:4f:1f:0e:2c:
         8a:76:9c:52:92:db:e2:88:9a:95:7b:3c:4a:80:9b:8c:46:af:
         99:11:e7:24:d1:12:2e:2b:23:b6:86:26:6d:c9:38:5d:0c:e9:
         04:22:d7:6e:9a:5e:0d:11:fd:10:91:54:cf:83:f4:a1:6e:29:
         7b:2d:4a:88:6d:60:a5:1b:d2:ed:9a:d3:34:57:1d:8c:11:ea:
         43:24:6f:9a:13:81:64:65:bb:92:82:75:0f:c9:e6:05:f7:ff:
         ba:0c:a9:58:e6:92:9b:96:c4:1f:7c:1b:98:4a:cf:42:07:06:
         da:88:d6:3f:af:eb:2a:af:ae:c6:fb:df:bf:ef:6b:b9:fb:0b:
         81:52:d8:fd:53:79:6c:02:91:ad:48:63:b7:c6:c5:e5:42:de:
         c4:71:79:88:32:df:04:41:22:d9:16:36:3e:a3:44:31:23:91:
         a2:84:59:8a:62:6f:ee:fa:e0:98:59:df:23:43:fd:a0:05:2f:
         14:12:ea:d8:30:ee:10:7a:a5:ee:d5:36:95:28:8d:0a:e6:75:
         98:14:8a:c1
-----BEGIN CERTIFICATE-----
MIIDhTCCAm2gAwIBAgIBGzANBgkqhkiG9w0BAQsFADCBrTELMAkGA1UEBhMCVVMx
EzARBgNVBAgMCkNhbGlmb3JuaWExFDASBgNVBAcMC0xvcyBBbmdlbGVzMRUwEwYD
VQQKDAxEaWdpQ2VydCBJbmMxGTAXBgNVBAsMEHd3dy5kaWdpY2VydC5jb20xIDAe
BgNVBAMMF0RpZ2lDZXJ0IEdsb2JhbCBSb290IENBMR8wHQYJKoZIhvcNAQkBFhB3
d3cuZGlnaWNlcnQuY29tMB4XDTIzMDYyNjA4MDUwNVoXDTMzMDYyMzA4MDUwNVow
gbMxCzAJBgNVBAYTAlVTMRMwEQYDVQQIDApDYWxpZm9ybmlhMRQwEgYDVQQHDAtM
b3MgQW5nZWxlczEVMBMGA1UECgwMRGlnaUNlcnQgSW5jMRkwFwYDVQQLDBB3d3cu
ZGlnaWNlcnQuY29tMSYwJAYDVQQDDB1lY29tNS1ub3JtYWwtbHEuZWNvbWJkYXBp
LmNvbTEfMB0GCSqGSIb3DQEJARYQd3d3LmRpZ2ljZXJ0LmNvbTCBnzANBgkqhkiG
9w0BAQEFAAOBjQAwgYkCgYEAuq1MCRo8hU9g1ZO8nhL0mxbni9IoKav5OJnhhDob
cG6gW63zTmVcGftWiRb7aDZDGju2Mk1jQ7DFEGk9lhN/quR01LNgqq9bx1b24UlV
2ZK6cDdzTJFrzBCOWPLiGxsecj7Gu6XKCNi7I7u/hgLeEenZeW1gpsYMLOM1cvF2
v7UCAwEAAaMsMCowKAYDVR0RBCEwH4IdZWNvbTUtbm9ybWFsLWxxLmVjb21iZGFw
aS5jb20wDQYJKoZIhvcNAQELBQADggEBAC8wDFcJLy7w6IyXct/b5EJ4XeWqEbCj
QpF8zMCe78kBqR+VO3BTatW9h1EUAvTvgKz0Tx8OLIp2nFKS2+KImpV7PEqAm4xG
r5kR5yTREi4rI7aGJm3JOF0M6QQi126aXg0R/RCRVM+D9KFuKXstSohtYKUb0u2a
0zRXHYwR6kMkb5oTgWRlu5KCdQ/J5gX3/7oMqVjmkpuWxB98G5hKz0IHBtqI1j+v
6yqvrsb737/va7n7C4FS2P1TeWwCka1IY7fGxeVC3sRxeYgy3wRBItkWNj6jRDEj
kaKEWYpib+764JhZ3yND/aAFLxQS6tgw7hB6pe7VNpUojQrmdZgUisE=
-----END CERTIFICATE-----
