Certificate:
    Data:
        Version: 3 (0x2)
        Serial Number: 55 (0x37)
        Signature Algorithm: sha256WithRSAEncryption
        Issuer: C=US, ST=California, L=Los Angeles, O=DigiCert Inc, OU=www.digicert.com, CN=DigiCert Global Root CA/emailAddress=www.digicert.com
        Validity
            Not Before: Jun 26 08:07:01 2023 GMT
            Not After : Jun 23 08:07:01 2033 GMT
        Subject: C=US, ST=California, L=Los Angeles, O=DigiCert Inc, OU=www.digicert.com, CN=entphz.alipay.com/emailAddress=www.digicert.com
        Subject Public Key Info:
            Public Key Algorithm: rsaEncryption
                RSA Public-Key: (1024 bit)
                Modulus:
                    00:ba:ad:4c:09:1a:3c:85:4f:60:d5:93:bc:9e:12:
                    f4:9b:16:e7:8b:d2:28:29:ab:f9:38:99:e1:84:3a:
                    1b:70:6e:a0:5b:ad:f3:4e:65:5c:19:fb:56:89:16:
                    fb:68:36:43:1a:3b:b6:32:4d:63:43:b0:c5:10:69:
                    3d:96:13:7f:aa:e4:74:d4:b3:60:aa:af:5b:c7:56:
                    f6:e1:49:55:d9:92:ba:70:37:73:4c:91:6b:cc:10:
                    8e:58:f2:e2:1b:1b:1e:72:3e:c6:bb:a5:ca:08:d8:
                    bb:23:bb:bf:86:02:de:11:e9:d9:79:6d:60:a6:c6:
                    0c:2c:e3:35:72:f1:76:bf:b5
                Exponent: 65537 (0x10001)
        X509v3 extensions:
            X509v3 Subject Alternative Name: 
                DNS:entphz.alipay.com
    Signature Algorithm: sha256WithRSAEncryption
         4e:de:e0:be:5f:8a:de:c9:01:2f:a8:fe:9f:53:fd:d5:d0:21:
         d7:ba:de:8c:cc:09:c8:9c:29:05:91:89:4c:91:8a:96:0e:44:
         3c:b4:5b:7d:84:e3:b6:e2:e8:59:86:c3:72:df:33:aa:3d:62:
         36:89:63:72:dc:0a:f1:01:07:36:e2:30:3a:60:f9:c1:27:ea:
         27:09:08:d0:a0:bf:cc:83:f8:60:74:0f:cc:b7:ae:b5:72:4b:
         cf:20:00:41:f0:70:9d:be:fa:31:2c:df:ea:c1:91:06:0c:60:
         f1:30:97:8e:36:bb:10:a6:c8:2b:a9:c7:a1:41:4c:64:12:bb:
         47:9e:44:fb:69:bb:d0:ae:37:36:6d:96:53:7a:13:12:c1:a6:
         7a:ab:a6:5f:05:58:4e:92:a7:e7:9c:4e:ef:74:c8:00:fd:b7:
         71:35:ec:e5:85:86:31:1f:b8:92:26:89:05:bf:a2:90:7f:14:
         88:b0:66:a2:5b:62:7c:dc:bb:35:5f:42:70:09:de:13:a1:c0:
         51:29:53:2a:d1:33:dd:9e:22:32:bd:a3:7f:c3:a1:6a:65:6b:
         c6:16:b4:fe:53:9b:7e:21:e5:3b:54:72:48:41:2c:45:41:30:
         7e:5b:7c:5f:1b:e2:5d:f5:75:9f:f4:a6:8e:c7:d8:fe:f8:38:
         67:ad:39:52
-----BEGIN CERTIFICATE-----
MIIDbTCCAlWgAwIBAgIBNzANBgkqhkiG9w0BAQsFADCBrTELMAkGA1UEBhMCVVMx
EzARBgNVBAgMCkNhbGlmb3JuaWExFDASBgNVBAcMC0xvcyBBbmdlbGVzMRUwEwYD
VQQKDAxEaWdpQ2VydCBJbmMxGTAXBgNVBAsMEHd3dy5kaWdpY2VydC5jb20xIDAe
BgNVBAMMF0RpZ2lDZXJ0IEdsb2JhbCBSb290IENBMR8wHQYJKoZIhvcNAQkBFhB3
d3cuZGlnaWNlcnQuY29tMB4XDTIzMDYyNjA4MDcwMVoXDTMzMDYyMzA4MDcwMVow
gacxCzAJBgNVBAYTAlVTMRMwEQYDVQQIDApDYWxpZm9ybmlhMRQwEgYDVQQHDAtM
b3MgQW5nZWxlczEVMBMGA1UECgwMRGlnaUNlcnQgSW5jMRkwFwYDVQQLDBB3d3cu
ZGlnaWNlcnQuY29tMRowGAYDVQQDDBFlbnRwaHouYWxpcGF5LmNvbTEfMB0GCSqG
SIb3DQEJARYQd3d3LmRpZ2ljZXJ0LmNvbTCBnzANBgkqhkiG9w0BAQEFAAOBjQAw
gYkCgYEAuq1MCRo8hU9g1ZO8nhL0mxbni9IoKav5OJnhhDobcG6gW63zTmVcGftW
iRb7aDZDGju2Mk1jQ7DFEGk9lhN/quR01LNgqq9bx1b24UlV2ZK6cDdzTJFrzBCO
WPLiGxsecj7Gu6XKCNi7I7u/hgLeEenZeW1gpsYMLOM1cvF2v7UCAwEAAaMgMB4w
HAYDVR0RBBUwE4IRZW50cGh6LmFsaXBheS5jb20wDQYJKoZIhvcNAQELBQADggEB
AE7e4L5fit7JAS+o/p9T/dXQIde63ozMCcicKQWRiUyRipYORDy0W32E47bi6FmG
w3LfM6o9YjaJY3LcCvEBBzbiMDpg+cEn6icJCNCgv8yD+GB0D8y3rrVyS88gAEHw
cJ2++jEs3+rBkQYMYPEwl442uxCmyCupx6FBTGQSu0eeRPtpu9CuNzZtllN6ExLB
pnqrpl8FWE6Sp+ecTu90yAD9t3E17OWFhjEfuJImiQW/opB/FIiwZqJbYnzcuzVf
QnAJ3hOhwFEpUyrRM92eIjK9o3/DoWpla8YWtP5Tm34h5TtUckhBLEVBMH5bfF8b
4l31dZ/0po7H2P74OGetOVI=
-----END CERTIFICATE-----
