Certificate:
    Data:
        Version: 3 (0x2)
        Serial Number: 18 (0x12)
    Signature Algorithm: sha256WithRSAEncryption
        Issuer: C=US, ST=California, L=Los Angeles, O=DigiCert Inc, OU=www.digicert.com, CN=DigiCert Global Root CA/emailAddress=www.digicert.com
        Validity
            Not Before: Jun 15 16:13:28 2021 GMT
            Not After : Jun 13 16:13:28 2031 GMT
        Subject: C=US, ST=California, L=Los Angeles, O=DigiCert Inc, OU=www.digicert.com, CN=fourier.taobao.com/emailAddress=www.digicert.com
        Subject Public Key Info:
            Public Key Algorithm: rsaEncryption
                Public-Key: (1024 bit)
                Modulus:
                    00:ba:ad:4c:09:1a:3c:85:4f:60:d5:93:bc:9e:12:
                    f4:9b:16:e7:8b:d2:28:29:ab:f9:38:99:e1:84:3a:
                    1b:70:6e:a0:5b:ad:f3:4e:65:5c:19:fb:56:89:16:
                    fb:68:36:43:1a:3b:b6:32:4d:63:43:b0:c5:10:69:
                    3d:96:13:7f:aa:e4:74:d4:b3:60:aa:af:5b:c7:56:
                    f6:e1:49:55:d9:92:ba:70:37:73:4c:91:6b:cc:10:
                    8e:58:f2:e2:1b:1b:1e:72:3e:c6:bb:a5:ca:08:d8:
                    bb:23:bb:bf:86:02:de:11:e9:d9:79:6d:60:a6:c6:
                    0c:2c:e3:35:72:f1:76:bf:b5
                Exponent: 65537 (0x10001)
        X509v3 extensions:
            X509v3 Subject Alternative Name: 
                DNS:fourier.taobao.com
    Signature Algorithm: sha256WithRSAEncryption
         bd:e4:99:ab:35:04:8b:e7:af:0b:c0:a7:be:2f:0f:db:25:c1:
         59:a0:0f:95:d6:fc:50:17:be:50:f0:b9:77:25:82:85:ea:3a:
         7d:3e:30:56:a2:1c:10:fa:1c:14:7e:0c:05:36:c0:61:b1:a1:
         89:70:f8:0c:7b:be:3e:d0:37:32:52:8b:3c:35:40:51:cd:ca:
         04:41:92:b0:92:5c:61:06:bd:33:24:e0:5c:21:67:78:1e:8b:
         78:a9:2c:a4:13:25:80:21:da:b9:46:51:35:c6:80:c7:82:15:
         3d:dc:60:69:6a:ea:0b:ae:d0:30:ae:6a:63:9f:54:7d:f2:93:
         05:3c:b9:3a:ce:94:02:03:80:cc:08:84:53:12:5f:e8:f7:cf:
         ce:bc:4c:88:cf:38:86:98:83:1f:80:e1:ed:61:41:f7:35:8e:
         8a:da:f9:7a:12:8f:c0:94:d8:e7:61:2f:c8:0d:cf:c2:6a:b1:
         ff:52:fa:4a:29:b4:b7:5c:a1:75:69:ec:a6:e3:1c:bf:a8:e2:
         21:c8:b4:00:f8:b4:10:b3:40:ce:97:a5:33:5b:05:d8:58:1f:
         fa:08:1d:df:b8:27:37:c4:ec:1d:17:f1:b1:87:9c:2c:6a:1c:
         2e:77:63:ed:f2:0b:5f:e9:36:fb:0e:67:12:66:a6:b2:54:93:
         10:52:a6:3c
-----BEGIN CERTIFICATE-----
MIIDbzCCAlegAwIBAgIBEjANBgkqhkiG9w0BAQsFADCBrTELMAkGA1UEBhMCVVMx
EzARBgNVBAgMCkNhbGlmb3JuaWExFDASBgNVBAcMC0xvcyBBbmdlbGVzMRUwEwYD
VQQKDAxEaWdpQ2VydCBJbmMxGTAXBgNVBAsMEHd3dy5kaWdpY2VydC5jb20xIDAe
BgNVBAMMF0RpZ2lDZXJ0IEdsb2JhbCBSb290IENBMR8wHQYJKoZIhvcNAQkBFhB3
d3cuZGlnaWNlcnQuY29tMB4XDTIxMDYxNTE2MTMyOFoXDTMxMDYxMzE2MTMyOFow
gagxCzAJBgNVBAYTAlVTMRMwEQYDVQQIDApDYWxpZm9ybmlhMRQwEgYDVQQHDAtM
b3MgQW5nZWxlczEVMBMGA1UECgwMRGlnaUNlcnQgSW5jMRkwFwYDVQQLDBB3d3cu
ZGlnaWNlcnQuY29tMRswGQYDVQQDDBJmb3VyaWVyLnRhb2Jhby5jb20xHzAdBgkq
hkiG9w0BCQEWEHd3dy5kaWdpY2VydC5jb20wgZ8wDQYJKoZIhvcNAQEBBQADgY0A
MIGJAoGBALqtTAkaPIVPYNWTvJ4S9JsW54vSKCmr+TiZ4YQ6G3BuoFut805lXBn7
VokW+2g2Qxo7tjJNY0OwxRBpPZYTf6rkdNSzYKqvW8dW9uFJVdmSunA3c0yRa8wQ
jljy4hsbHnI+xrulygjYuyO7v4YC3hHp2XltYKbGDCzjNXLxdr+1AgMBAAGjITAf
MB0GA1UdEQQWMBSCEmZvdXJpZXIudGFvYmFvLmNvbTANBgkqhkiG9w0BAQsFAAOC
AQEAveSZqzUEi+evC8Cnvi8P2yXBWaAPldb8UBe+UPC5dyWCheo6fT4wVqIcEPoc
FH4MBTbAYbGhiXD4DHu+PtA3MlKLPDVAUc3KBEGSsJJcYQa9MyTgXCFneB6LeKks
pBMlgCHauUZRNcaAx4IVPdxgaWrqC67QMK5qY59UffKTBTy5Os6UAgOAzAiEUxJf
6PfPzrxMiM84hpiDH4Dh7WFB9zWOitr5ehKPwJTY52EvyA3Pwmqx/1L6Sim0t1yh
dWnspuMcv6jiIci0APi0ELNAzpelM1sF2Fgf+ggd37gnN8TsHRfxsYecLGocLndj
7fILX+k2+w5nEmamslSTEFKmPA==
-----END CERTIFICATE-----
