Certificate:
    Data:
        Version: 3 (0x2)
        Serial Number: 12 (0xc)
    Signature Algorithm: sha256WithRSAEncryption
        Issuer: C=US, ST=California, L=Los Angeles, O=DigiCert Inc, OU=www.digicert.com, CN=DigiCert Global Root CA/emailAddress=www.digicert.com
        Validity
            Not Before: Jun 15 16:13:24 2021 GMT
            Not After : Jun 13 16:13:24 2031 GMT
        Subject: C=US, ST=California, L=Los Angeles, O=DigiCert Inc, OU=www.digicert.com, CN=g.alicdn.com/emailAddress=www.digicert.com
        Subject Public Key Info:
            Public Key Algorithm: rsaEncryption
                Public-Key: (1024 bit)
                Modulus:
                    00:ba:ad:4c:09:1a:3c:85:4f:60:d5:93:bc:9e:12:
                    f4:9b:16:e7:8b:d2:28:29:ab:f9:38:99:e1:84:3a:
                    1b:70:6e:a0:5b:ad:f3:4e:65:5c:19:fb:56:89:16:
                    fb:68:36:43:1a:3b:b6:32:4d:63:43:b0:c5:10:69:
                    3d:96:13:7f:aa:e4:74:d4:b3:60:aa:af:5b:c7:56:
                    f6:e1:49:55:d9:92:ba:70:37:73:4c:91:6b:cc:10:
                    8e:58:f2:e2:1b:1b:1e:72:3e:c6:bb:a5:ca:08:d8:
                    bb:23:bb:bf:86:02:de:11:e9:d9:79:6d:60:a6:c6:
                    0c:2c:e3:35:72:f1:76:bf:b5
                Exponent: 65537 (0x10001)
        X509v3 extensions:
            X509v3 Subject Alternative Name: 
                DNS:g.alicdn.com
    Signature Algorithm: sha256WithRSAEncryption
         42:ab:2b:28:94:9e:04:21:16:60:57:55:c2:b6:12:15:41:6e:
         f2:e9:58:b6:cf:56:0e:fd:03:a1:d9:48:d2:99:b9:df:32:40:
         c5:d4:40:59:95:ac:82:a3:e5:3b:b9:3c:b3:3f:41:48:14:8b:
         32:87:af:19:f7:b1:31:d3:3c:3e:40:29:18:33:72:08:56:19:
         a6:3f:d3:22:c8:ec:da:85:7d:8d:5e:58:3d:7d:57:3f:d8:6a:
         f7:68:96:53:90:e7:4a:64:81:ec:b3:e9:2b:82:c8:38:c7:49:
         60:49:c6:b4:80:50:57:d0:0b:4f:94:e6:80:89:35:38:d2:f7:
         27:b3:7c:e7:99:fa:cd:ae:91:db:c2:d2:38:8b:c4:9a:2a:49:
         a3:25:e8:0a:c5:6c:81:64:21:a5:c4:86:08:00:ed:f3:96:a6:
         f0:90:16:90:84:d5:d7:3b:5e:82:4b:28:33:08:e2:04:5f:06:
         03:87:f5:c5:13:88:17:7a:69:40:dc:c8:6f:3b:70:aa:b9:91:
         ba:b3:28:06:d4:ef:91:a5:0e:fa:3c:e1:f6:6a:45:30:ce:3d:
         26:bd:7f:a2:d4:56:7b:c1:3b:8c:4d:31:4b:2b:5e:bd:4b:92:
         a6:45:06:97:67:a6:58:89:a3:09:86:9f:98:5f:a0:21:dc:dc:
         96:94:4c:3d
-----BEGIN CERTIFICATE-----
MIIDYzCCAkugAwIBAgIBDDANBgkqhkiG9w0BAQsFADCBrTELMAkGA1UEBhMCVVMx
EzARBgNVBAgMCkNhbGlmb3JuaWExFDASBgNVBAcMC0xvcyBBbmdlbGVzMRUwEwYD
VQQKDAxEaWdpQ2VydCBJbmMxGTAXBgNVBAsMEHd3dy5kaWdpY2VydC5jb20xIDAe
BgNVBAMMF0RpZ2lDZXJ0IEdsb2JhbCBSb290IENBMR8wHQYJKoZIhvcNAQkBFhB3
d3cuZGlnaWNlcnQuY29tMB4XDTIxMDYxNTE2MTMyNFoXDTMxMDYxMzE2MTMyNFow
gaIxCzAJBgNVBAYTAlVTMRMwEQYDVQQIDApDYWxpZm9ybmlhMRQwEgYDVQQHDAtM
b3MgQW5nZWxlczEVMBMGA1UECgwMRGlnaUNlcnQgSW5jMRkwFwYDVQQLDBB3d3cu
ZGlnaWNlcnQuY29tMRUwEwYDVQQDDAxnLmFsaWNkbi5jb20xHzAdBgkqhkiG9w0B
CQEWEHd3dy5kaWdpY2VydC5jb20wgZ8wDQYJKoZIhvcNAQEBBQADgY0AMIGJAoGB
ALqtTAkaPIVPYNWTvJ4S9JsW54vSKCmr+TiZ4YQ6G3BuoFut805lXBn7VokW+2g2
Qxo7tjJNY0OwxRBpPZYTf6rkdNSzYKqvW8dW9uFJVdmSunA3c0yRa8wQjljy4hsb
HnI+xrulygjYuyO7v4YC3hHp2XltYKbGDCzjNXLxdr+1AgMBAAGjGzAZMBcGA1Ud
EQQQMA6CDGcuYWxpY2RuLmNvbTANBgkqhkiG9w0BAQsFAAOCAQEAQqsrKJSeBCEW
YFdVwrYSFUFu8ulYts9WDv0DodlI0pm53zJAxdRAWZWsgqPlO7k8sz9BSBSLMoev
GfexMdM8PkApGDNyCFYZpj/TIsjs2oV9jV5YPX1XP9hq92iWU5DnSmSB7LPpK4LI
OMdJYEnGtIBQV9ALT5TmgIk1ONL3J7N855n6za6R28LSOIvEmipJoyXoCsVsgWQh
pcSGCADt85am8JAWkITV1ztegksoMwjiBF8GA4f1xROIF3ppQNzIbztwqrmRurMo
BtTvkaUO+jzh9mpFMM49Jr1/otRWe8E7jE0xSytevUuSpkUGl2emWImjCYafmF+g
IdzclpRMPQ==
-----END CERTIFICATE-----
