Certificate:
    Data:
        Version: 3 (0x2)
        Serial Number: 69 (0x45)
        Signature Algorithm: sha256WithRSAEncryption
        Issuer: C=US, ST=California, L=Los Angeles, O=DigiCert Inc, OU=www.digicert.com, CN=DigiCert Global Root CA/emailAddress=www.digicert.com
        Validity
            Not Before: Jun 26 08:07:15 2023 GMT
            Not After : Jun 23 08:07:15 2033 GMT
        Subject: C=US, ST=California, L=Los Angeles, O=DigiCert Inc, OU=www.digicert.com, CN=gw.alipayobjects.com/emailAddress=www.digicert.com
        Subject Public Key Info:
            Public Key Algorithm: rsaEncryption
                RSA Public-Key: (1024 bit)
                Modulus:
                    00:ba:ad:4c:09:1a:3c:85:4f:60:d5:93:bc:9e:12:
                    f4:9b:16:e7:8b:d2:28:29:ab:f9:38:99:e1:84:3a:
                    1b:70:6e:a0:5b:ad:f3:4e:65:5c:19:fb:56:89:16:
                    fb:68:36:43:1a:3b:b6:32:4d:63:43:b0:c5:10:69:
                    3d:96:13:7f:aa:e4:74:d4:b3:60:aa:af:5b:c7:56:
                    f6:e1:49:55:d9:92:ba:70:37:73:4c:91:6b:cc:10:
                    8e:58:f2:e2:1b:1b:1e:72:3e:c6:bb:a5:ca:08:d8:
                    bb:23:bb:bf:86:02:de:11:e9:d9:79:6d:60:a6:c6:
                    0c:2c:e3:35:72:f1:76:bf:b5
                Exponent: 65537 (0x10001)
        X509v3 extensions:
            X509v3 Subject Alternative Name: 
                DNS:gw.alipayobjects.com
    Signature Algorithm: sha256WithRSAEncryption
         63:1b:8b:1c:0e:ec:a9:28:9b:e1:c3:b4:c9:f0:21:a1:9e:9d:
         d0:c4:db:4c:b3:96:6a:f4:f8:80:fb:0a:d7:ed:6f:d5:5b:42:
         a6:02:20:86:f1:d9:5d:34:83:29:47:48:10:e7:ae:2b:f0:03:
         2e:cd:fd:ea:2f:41:84:00:89:8d:71:87:f5:84:2f:b8:71:7d:
         8c:21:aa:f9:2c:77:a1:a1:56:23:95:ef:59:46:a1:2b:f7:1b:
         9b:90:01:80:2e:d0:54:38:39:2f:f6:12:42:c8:b6:d1:c1:08:
         fc:92:3a:fe:c3:4c:3e:b6:d8:c6:f3:dc:0b:a0:a3:d5:f1:29:
         8e:d5:f9:a9:83:c1:fb:6f:fd:2a:78:93:c3:75:91:f0:a0:02:
         99:2a:1a:92:e5:25:43:06:71:36:6c:6e:51:61:43:b4:54:c9:
         0f:0e:2d:41:e6:3a:80:f6:e4:61:12:2b:06:f2:78:1a:01:03:
         5b:5a:16:7a:35:6b:a5:9b:b5:75:dc:d6:dc:5a:eb:12:fd:d7:
         4e:5f:81:e6:25:68:d0:34:83:ad:11:03:b7:22:84:97:98:89:
         95:7a:2b:a2:90:a6:2a:03:ff:71:90:c9:82:b1:cd:f1:ad:29:
         12:56:ea:1a:b5:65:cf:cc:bb:f1:2e:89:b5:30:cf:ae:e3:1a:
         fb:de:52:65
-----BEGIN CERTIFICATE-----
MIIDczCCAlugAwIBAgIBRTANBgkqhkiG9w0BAQsFADCBrTELMAkGA1UEBhMCVVMx
EzARBgNVBAgMCkNhbGlmb3JuaWExFDASBgNVBAcMC0xvcyBBbmdlbGVzMRUwEwYD
VQQKDAxEaWdpQ2VydCBJbmMxGTAXBgNVBAsMEHd3dy5kaWdpY2VydC5jb20xIDAe
BgNVBAMMF0RpZ2lDZXJ0IEdsb2JhbCBSb290IENBMR8wHQYJKoZIhvcNAQkBFhB3
d3cuZGlnaWNlcnQuY29tMB4XDTIzMDYyNjA4MDcxNVoXDTMzMDYyMzA4MDcxNVow
gaoxCzAJBgNVBAYTAlVTMRMwEQYDVQQIDApDYWxpZm9ybmlhMRQwEgYDVQQHDAtM
b3MgQW5nZWxlczEVMBMGA1UECgwMRGlnaUNlcnQgSW5jMRkwFwYDVQQLDBB3d3cu
ZGlnaWNlcnQuY29tMR0wGwYDVQQDDBRndy5hbGlwYXlvYmplY3RzLmNvbTEfMB0G
CSqGSIb3DQEJARYQd3d3LmRpZ2ljZXJ0LmNvbTCBnzANBgkqhkiG9w0BAQEFAAOB
jQAwgYkCgYEAuq1MCRo8hU9g1ZO8nhL0mxbni9IoKav5OJnhhDobcG6gW63zTmVc
GftWiRb7aDZDGju2Mk1jQ7DFEGk9lhN/quR01LNgqq9bx1b24UlV2ZK6cDdzTJFr
zBCOWPLiGxsecj7Gu6XKCNi7I7u/hgLeEenZeW1gpsYMLOM1cvF2v7UCAwEAAaMj
MCEwHwYDVR0RBBgwFoIUZ3cuYWxpcGF5b2JqZWN0cy5jb20wDQYJKoZIhvcNAQEL
BQADggEBAGMbixwO7Kkom+HDtMnwIaGendDE20yzlmr0+ID7Ctftb9VbQqYCIIbx
2V00gylHSBDnrivwAy7N/eovQYQAiY1xh/WEL7hxfYwhqvksd6GhViOV71lGoSv3
G5uQAYAu0FQ4OS/2EkLIttHBCPySOv7DTD622Mbz3Augo9XxKY7V+amDwftv/Sp4
k8N1kfCgApkqGpLlJUMGcTZsblFhQ7RUyQ8OLUHmOoD25GESKwbyeBoBA1taFno1
a6WbtXXc1txa6xL9105fgeYlaNA0g60RA7cihJeYiZV6K6KQpioD/3GQyYKxzfGt
KRJW6hq1Zc/Mu/EuibUwz67jGvveUmU=
-----END CERTIFICATE-----
