Certificate:
    Data:
        Version: 3 (0x2)
        Serial Number: 15 (0xf)
    Signature Algorithm: sha256WithRSAEncryption
        Issuer: C=US, ST=California, L=Los Angeles, O=DigiCert Inc, OU=www.digicert.com, CN=DigiCert Global Root CA/emailAddress=www.digicert.com
        Validity
            Not Before: Jun 15 16:13:25 2021 GMT
            Not After : Jun 13 16:13:25 2031 GMT
        Subject: C=US, ST=California, L=Los Angeles, O=DigiCert Inc, OU=www.digicert.com, CN=h5.dingtalk.com/emailAddress=www.digicert.com
        Subject Public Key Info:
            Public Key Algorithm: rsaEncryption
                Public-Key: (1024 bit)
                Modulus:
                    00:ba:ad:4c:09:1a:3c:85:4f:60:d5:93:bc:9e:12:
                    f4:9b:16:e7:8b:d2:28:29:ab:f9:38:99:e1:84:3a:
                    1b:70:6e:a0:5b:ad:f3:4e:65:5c:19:fb:56:89:16:
                    fb:68:36:43:1a:3b:b6:32:4d:63:43:b0:c5:10:69:
                    3d:96:13:7f:aa:e4:74:d4:b3:60:aa:af:5b:c7:56:
                    f6:e1:49:55:d9:92:ba:70:37:73:4c:91:6b:cc:10:
                    8e:58:f2:e2:1b:1b:1e:72:3e:c6:bb:a5:ca:08:d8:
                    bb:23:bb:bf:86:02:de:11:e9:d9:79:6d:60:a6:c6:
                    0c:2c:e3:35:72:f1:76:bf:b5
                Exponent: 65537 (0x10001)
        X509v3 extensions:
            X509v3 Subject Alternative Name: 
                DNS:h5.dingtalk.com
    Signature Algorithm: sha256WithRSAEncryption
         8a:8e:7f:5a:a7:a0:8d:0d:55:da:91:43:f4:f6:f9:48:5d:49:
         aa:3e:a3:ac:c5:1c:ff:40:80:32:eb:18:94:65:86:8e:e0:69:
         9b:6b:2b:6c:19:a1:15:0f:9f:28:24:a6:d8:bd:d5:2f:78:cf:
         39:6d:2d:38:a5:07:f9:59:8d:dd:9d:c3:f4:df:99:38:0b:ab:
         43:13:a5:5e:b6:5c:50:5f:f7:72:15:46:98:76:46:ae:10:74:
         3e:26:79:3e:92:4c:14:2a:1d:e8:cf:0f:e5:23:1d:5a:b2:39:
         1d:00:a5:c7:f4:45:09:ec:16:32:c9:ce:11:d2:e1:80:56:7a:
         f6:8e:3c:a3:2c:f4:61:b2:da:a2:17:23:a7:14:8f:25:52:1c:
         60:ae:c4:69:6d:95:0f:33:ed:0c:a2:d3:4b:eb:80:84:cd:06:
         12:f2:e7:f1:b0:a5:be:45:f9:e6:25:06:3c:71:25:33:f4:7f:
         09:de:34:f9:2c:d8:44:c7:7e:97:9d:e0:a4:29:aa:c7:bb:d3:
         a5:28:96:dc:0e:6c:b6:0c:35:2e:5e:30:0c:52:6a:a1:2d:d3:
         7b:a0:de:24:ad:50:3b:65:b6:80:fb:af:f3:89:de:89:ab:f0:
         97:bc:75:be:c2:24:15:d4:0e:01:ec:ed:31:e4:22:51:63:8b:
         53:78:01:b8
-----BEGIN CERTIFICATE-----
MIIDaTCCAlGgAwIBAgIBDzANBgkqhkiG9w0BAQsFADCBrTELMAkGA1UEBhMCVVMx
EzARBgNVBAgMCkNhbGlmb3JuaWExFDASBgNVBAcMC0xvcyBBbmdlbGVzMRUwEwYD
VQQKDAxEaWdpQ2VydCBJbmMxGTAXBgNVBAsMEHd3dy5kaWdpY2VydC5jb20xIDAe
BgNVBAMMF0RpZ2lDZXJ0IEdsb2JhbCBSb290IENBMR8wHQYJKoZIhvcNAQkBFhB3
d3cuZGlnaWNlcnQuY29tMB4XDTIxMDYxNTE2MTMyNVoXDTMxMDYxMzE2MTMyNVow
gaUxCzAJBgNVBAYTAlVTMRMwEQYDVQQIDApDYWxpZm9ybmlhMRQwEgYDVQQHDAtM
b3MgQW5nZWxlczEVMBMGA1UECgwMRGlnaUNlcnQgSW5jMRkwFwYDVQQLDBB3d3cu
ZGlnaWNlcnQuY29tMRgwFgYDVQQDDA9oNS5kaW5ndGFsay5jb20xHzAdBgkqhkiG
9w0BCQEWEHd3dy5kaWdpY2VydC5jb20wgZ8wDQYJKoZIhvcNAQEBBQADgY0AMIGJ
AoGBALqtTAkaPIVPYNWTvJ4S9JsW54vSKCmr+TiZ4YQ6G3BuoFut805lXBn7VokW
+2g2Qxo7tjJNY0OwxRBpPZYTf6rkdNSzYKqvW8dW9uFJVdmSunA3c0yRa8wQjljy
4hsbHnI+xrulygjYuyO7v4YC3hHp2XltYKbGDCzjNXLxdr+1AgMBAAGjHjAcMBoG
A1UdEQQTMBGCD2g1LmRpbmd0YWxrLmNvbTANBgkqhkiG9w0BAQsFAAOCAQEAio5/
WqegjQ1V2pFD9Pb5SF1Jqj6jrMUc/0CAMusYlGWGjuBpm2srbBmhFQ+fKCSm2L3V
L3jPOW0tOKUH+VmN3Z3D9N+ZOAurQxOlXrZcUF/3chVGmHZGrhB0PiZ5PpJMFCod
6M8P5SMdWrI5HQClx/RFCewWMsnOEdLhgFZ69o48oyz0YbLaohcjpxSPJVIcYK7E
aW2VDzPtDKLTS+uAhM0GEvLn8bClvkX55iUGPHElM/R/Cd40+SzYRMd+l53gpCmq
x7vTpSiW3A5stgw1Ll4wDFJqoS3Te6DeJK1QO2W2gPuv84neiavwl7x1vsIkFdQO
AeztMeQiUWOLU3gBuA==
-----END CERTIFICATE-----
