Certificate:
    Data:
        Version: 3 (0x2)
        Serial Number: 14 (0xe)
    Signature Algorithm: sha256WithRSAEncryption
        Issuer: C=US, ST=California, L=Los Angeles, O=DigiCert Inc, OU=www.digicert.com, CN=DigiCert Global Root CA/emailAddress=www.digicert.com
        Validity
            Not Before: Jun 15 16:13:24 2021 GMT
            Not After : Jun 13 16:13:24 2031 GMT
        Subject: C=US, ST=California, L=Los Angeles, O=DigiCert Inc, OU=www.digicert.com, CN=im.dingtalk.com/emailAddress=www.digicert.com
        Subject Public Key Info:
            Public Key Algorithm: rsaEncryption
                Public-Key: (1024 bit)
                Modulus:
                    00:ba:ad:4c:09:1a:3c:85:4f:60:d5:93:bc:9e:12:
                    f4:9b:16:e7:8b:d2:28:29:ab:f9:38:99:e1:84:3a:
                    1b:70:6e:a0:5b:ad:f3:4e:65:5c:19:fb:56:89:16:
                    fb:68:36:43:1a:3b:b6:32:4d:63:43:b0:c5:10:69:
                    3d:96:13:7f:aa:e4:74:d4:b3:60:aa:af:5b:c7:56:
                    f6:e1:49:55:d9:92:ba:70:37:73:4c:91:6b:cc:10:
                    8e:58:f2:e2:1b:1b:1e:72:3e:c6:bb:a5:ca:08:d8:
                    bb:23:bb:bf:86:02:de:11:e9:d9:79:6d:60:a6:c6:
                    0c:2c:e3:35:72:f1:76:bf:b5
                Exponent: 65537 (0x10001)
        X509v3 extensions:
            X509v3 Subject Alternative Name: 
                DNS:im.dingtalk.com
    Signature Algorithm: sha256WithRSAEncryption
         5f:e2:b6:bd:c4:eb:89:a0:d9:f5:ac:16:88:68:2e:2b:3f:0e:
         9a:80:3d:4f:d9:f4:56:06:c9:7b:dc:4d:20:ba:82:6e:fa:ef:
         8b:3b:32:0b:99:d1:75:21:6a:77:33:07:e8:ab:35:94:8b:27:
         e4:4d:9d:78:e8:56:eb:92:4a:2f:e4:d2:dc:a6:a8:e2:81:72:
         9c:15:e9:3a:d2:6e:c0:05:b4:63:4f:04:d7:fc:f9:7e:71:cc:
         5d:65:71:6f:ae:fd:f5:c6:96:e4:62:98:7c:7c:97:e3:2a:37:
         ee:ab:5b:d3:ee:94:1a:5d:e8:3c:32:be:b0:b9:72:0b:d2:22:
         5a:35:bc:ea:ed:c4:1b:b3:45:1a:a7:53:d8:45:50:0a:2f:f2:
         bc:e0:9b:1b:8d:62:44:b1:ae:b1:92:e5:6d:26:3c:68:cc:1f:
         c2:77:3b:09:22:ad:95:26:56:a7:89:21:ef:8c:f8:cd:2e:23:
         a2:d0:19:ce:1a:5e:a0:94:b9:e7:da:76:d9:e0:13:9a:ee:da:
         5d:00:3c:d1:f8:d5:f0:c5:64:8e:80:b7:d5:ad:04:61:cb:49:
         51:89:c8:ec:c7:6d:53:b9:a0:f7:3c:f2:a4:cd:ed:4d:61:52:
         e5:34:9a:95:9a:4c:7c:51:11:81:d2:30:40:d2:70:53:76:cd:
         17:c8:46:7e
-----BEGIN CERTIFICATE-----
MIIDaTCCAlGgAwIBAgIBDjANBgkqhkiG9w0BAQsFADCBrTELMAkGA1UEBhMCVVMx
EzARBgNVBAgMCkNhbGlmb3JuaWExFDASBgNVBAcMC0xvcyBBbmdlbGVzMRUwEwYD
VQQKDAxEaWdpQ2VydCBJbmMxGTAXBgNVBAsMEHd3dy5kaWdpY2VydC5jb20xIDAe
BgNVBAMMF0RpZ2lDZXJ0IEdsb2JhbCBSb290IENBMR8wHQYJKoZIhvcNAQkBFhB3
d3cuZGlnaWNlcnQuY29tMB4XDTIxMDYxNTE2MTMyNFoXDTMxMDYxMzE2MTMyNFow
gaUxCzAJBgNVBAYTAlVTMRMwEQYDVQQIDApDYWxpZm9ybmlhMRQwEgYDVQQHDAtM
b3MgQW5nZWxlczEVMBMGA1UECgwMRGlnaUNlcnQgSW5jMRkwFwYDVQQLDBB3d3cu
ZGlnaWNlcnQuY29tMRgwFgYDVQQDDA9pbS5kaW5ndGFsay5jb20xHzAdBgkqhkiG
9w0BCQEWEHd3dy5kaWdpY2VydC5jb20wgZ8wDQYJKoZIhvcNAQEBBQADgY0AMIGJ
AoGBALqtTAkaPIVPYNWTvJ4S9JsW54vSKCmr+TiZ4YQ6G3BuoFut805lXBn7VokW
+2g2Qxo7tjJNY0OwxRBpPZYTf6rkdNSzYKqvW8dW9uFJVdmSunA3c0yRa8wQjljy
4hsbHnI+xrulygjYuyO7v4YC3hHp2XltYKbGDCzjNXLxdr+1AgMBAAGjHjAcMBoG
A1UdEQQTMBGCD2ltLmRpbmd0YWxrLmNvbTANBgkqhkiG9w0BAQsFAAOCAQEAX+K2
vcTriaDZ9awWiGguKz8OmoA9T9n0VgbJe9xNILqCbvrvizsyC5nRdSFqdzMH6Ks1
lIsn5E2deOhW65JKL+TS3Kao4oFynBXpOtJuwAW0Y08E1/z5fnHMXWVxb6799caW
5GKYfHyX4yo37qtb0+6UGl3oPDK+sLlyC9IiWjW86u3EG7NFGqdT2EVQCi/yvOCb
G41iRLGusZLlbSY8aMwfwnc7CSKtlSZWp4kh74z4zS4jotAZzhpeoJS559p22eAT
mu7aXQA80fjV8MVkjoC31a0EYctJUYnI7MdtU7mg9zzypM3tTWFS5TSalZpMfFER
gdIwQNJwU3bNF8hGfg==
-----END CERTIFICATE-----
