Certificate:
    Data:
        Version: 3 (0x2)
        Serial Number: 2 (0x2)
    Signature Algorithm: sha256WithRSAEncryption
        Issuer: C=US, ST=California, L=Los Angeles, O=DigiCert Inc, OU=www.digicert.com, CN=DigiCert Global Root CA/emailAddress=www.digicert.com
        Validity
            Not Before: Jun 15 16:13:07 2021 GMT
            Not After : Jun 13 16:13:07 2031 GMT
        Subject: C=US, ST=California, L=Los Angeles, O=DigiCert Inc, OU=www.digicert.com, CN=login.dingtalk.com/emailAddress=www.digicert.com
        Subject Public Key Info:
            Public Key Algorithm: rsaEncryption
                Public-Key: (1024 bit)
                Modulus:
                    00:ba:ad:4c:09:1a:3c:85:4f:60:d5:93:bc:9e:12:
                    f4:9b:16:e7:8b:d2:28:29:ab:f9:38:99:e1:84:3a:
                    1b:70:6e:a0:5b:ad:f3:4e:65:5c:19:fb:56:89:16:
                    fb:68:36:43:1a:3b:b6:32:4d:63:43:b0:c5:10:69:
                    3d:96:13:7f:aa:e4:74:d4:b3:60:aa:af:5b:c7:56:
                    f6:e1:49:55:d9:92:ba:70:37:73:4c:91:6b:cc:10:
                    8e:58:f2:e2:1b:1b:1e:72:3e:c6:bb:a5:ca:08:d8:
                    bb:23:bb:bf:86:02:de:11:e9:d9:79:6d:60:a6:c6:
                    0c:2c:e3:35:72:f1:76:bf:b5
                Exponent: 65537 (0x10001)
        X509v3 extensions:
            X509v3 Subject Alternative Name: 
                DNS:login.dingtalk.com
    Signature Algorithm: sha256WithRSAEncryption
         56:03:16:ed:7d:b3:23:a4:9d:1e:9a:16:e2:bc:8d:93:c2:9d:
         2a:3b:df:d4:a8:41:d6:f5:b6:77:56:7f:f0:d7:c6:4b:27:64:
         3f:19:32:1a:cd:67:56:00:ef:25:62:a6:40:69:84:c4:a9:9c:
         35:a1:d5:b0:da:4a:1a:37:eb:09:52:51:0d:01:12:d5:fc:0c:
         0c:53:be:2a:c4:ab:80:a2:da:2c:78:25:9e:49:cc:4e:b7:18:
         27:0b:93:60:1e:e3:1d:cd:44:60:0b:49:be:c2:39:16:e1:fb:
         76:77:c0:ac:9c:f7:33:c1:be:3c:1c:60:60:12:29:78:f7:67:
         13:08:89:18:34:3d:8b:ef:d2:4e:9b:11:5d:f3:21:27:25:cd:
         54:e3:c6:96:e6:76:0d:e6:ee:1e:ed:23:23:9b:9f:13:8d:ad:
         5e:7d:73:b1:ed:9e:a0:cf:80:95:35:95:d8:19:9d:14:f2:69:
         ef:e2:cc:f9:2a:68:9c:10:d3:17:19:72:ea:48:61:3e:87:c3:
         01:ad:86:79:43:6a:09:3c:f6:d0:0b:d9:f6:75:32:82:c2:74:
         11:c7:14:9d:43:31:3b:cc:e6:8b:3f:8c:2b:87:46:9d:6c:31:
         06:1a:e6:48:01:92:cf:79:54:b0:ba:7f:a6:25:5b:7f:8c:ae:
         40:e2:83:bd
-----BEGIN CERTIFICATE-----
MIIDbzCCAlegAwIBAgIBAjANBgkqhkiG9w0BAQsFADCBrTELMAkGA1UEBhMCVVMx
EzARBgNVBAgMCkNhbGlmb3JuaWExFDASBgNVBAcMC0xvcyBBbmdlbGVzMRUwEwYD
VQQKDAxEaWdpQ2VydCBJbmMxGTAXBgNVBAsMEHd3dy5kaWdpY2VydC5jb20xIDAe
BgNVBAMMF0RpZ2lDZXJ0IEdsb2JhbCBSb290IENBMR8wHQYJKoZIhvcNAQkBFhB3
d3cuZGlnaWNlcnQuY29tMB4XDTIxMDYxNTE2MTMwN1oXDTMxMDYxMzE2MTMwN1ow
gagxCzAJBgNVBAYTAlVTMRMwEQYDVQQIDApDYWxpZm9ybmlhMRQwEgYDVQQHDAtM
b3MgQW5nZWxlczEVMBMGA1UECgwMRGlnaUNlcnQgSW5jMRkwFwYDVQQLDBB3d3cu
ZGlnaWNlcnQuY29tMRswGQYDVQQDDBJsb2dpbi5kaW5ndGFsay5jb20xHzAdBgkq
hkiG9w0BCQEWEHd3dy5kaWdpY2VydC5jb20wgZ8wDQYJKoZIhvcNAQEBBQADgY0A
MIGJAoGBALqtTAkaPIVPYNWTvJ4S9JsW54vSKCmr+TiZ4YQ6G3BuoFut805lXBn7
VokW+2g2Qxo7tjJNY0OwxRBpPZYTf6rkdNSzYKqvW8dW9uFJVdmSunA3c0yRa8wQ
jljy4hsbHnI+xrulygjYuyO7v4YC3hHp2XltYKbGDCzjNXLxdr+1AgMBAAGjITAf
MB0GA1UdEQQWMBSCEmxvZ2luLmRpbmd0YWxrLmNvbTANBgkqhkiG9w0BAQsFAAOC
AQEAVgMW7X2zI6SdHpoW4ryNk8KdKjvf1KhB1vW2d1Z/8NfGSydkPxkyGs1nVgDv
JWKmQGmExKmcNaHVsNpKGjfrCVJRDQES1fwMDFO+KsSrgKLaLHglnknMTrcYJwuT
YB7jHc1EYAtJvsI5FuH7dnfArJz3M8G+PBxgYBIpePdnEwiJGDQ9i+/STpsRXfMh
JyXNVOPGluZ2DebuHu0jI5ufE42tXn1zse2eoM+AlTWV2BmdFPJp7+LM+SponBDT
Fxly6khhPofDAa2GeUNqCTz20AvZ9nUygsJ0EccUnUMxO8zmiz+MK4dGnWwxBhrm
SAGSz3lUsLp/piVbf4yuQOKDvQ==
-----END CERTIFICATE-----
