Certificate:
    Data:
        Version: 3 (0x2)
        Serial Number: 47 (0x2f)
        Signature Algorithm: sha256WithRSAEncryption
        Issuer: C=US, ST=California, L=Los Angeles, O=DigiCert Inc, OU=www.digicert.com, CN=DigiCert Global Root CA/emailAddress=www.digicert.com
        Validity
            Not Before: Jun 26 08:06:38 2023 GMT
            Not After : Jun 23 08:06:38 2033 GMT
        Subject: C=US, ST=California, L=Los Angeles, O=DigiCert Inc, OU=www.digicert.com, CN=mdap.alipay.com/emailAddress=www.digicert.com
        Subject Public Key Info:
            Public Key Algorithm: rsaEncryption
                RSA Public-Key: (1024 bit)
                Modulus:
                    00:ba:ad:4c:09:1a:3c:85:4f:60:d5:93:bc:9e:12:
                    f4:9b:16:e7:8b:d2:28:29:ab:f9:38:99:e1:84:3a:
                    1b:70:6e:a0:5b:ad:f3:4e:65:5c:19:fb:56:89:16:
                    fb:68:36:43:1a:3b:b6:32:4d:63:43:b0:c5:10:69:
                    3d:96:13:7f:aa:e4:74:d4:b3:60:aa:af:5b:c7:56:
                    f6:e1:49:55:d9:92:ba:70:37:73:4c:91:6b:cc:10:
                    8e:58:f2:e2:1b:1b:1e:72:3e:c6:bb:a5:ca:08:d8:
                    bb:23:bb:bf:86:02:de:11:e9:d9:79:6d:60:a6:c6:
                    0c:2c:e3:35:72:f1:76:bf:b5
                Exponent: 65537 (0x10001)
        X509v3 extensions:
            X509v3 Subject Alternative Name: 
                DNS:mdap.alipay.com
    Signature Algorithm: sha256WithRSAEncryption
         ad:a0:af:b9:a4:96:4c:bb:99:fa:fa:f3:52:66:a5:ef:73:66:
         40:87:1b:00:05:9e:d4:53:c3:e1:a9:a1:cf:63:90:5e:b8:e5:
         21:a7:62:74:10:44:45:52:34:7e:e7:13:28:a4:33:8b:bd:91:
         db:49:e1:0d:3f:bf:41:be:fd:98:a2:07:5d:a5:5d:7c:b0:1b:
         d5:06:cc:6f:85:bc:ab:89:96:d5:e3:c6:1b:41:a1:e4:cb:89:
         ed:c5:6c:4b:ca:aa:92:cc:9e:74:5c:23:c5:c5:eb:2b:d8:02:
         dd:53:b5:8a:76:04:01:b8:4d:bc:21:17:a1:cf:3d:8e:f1:33:
         1a:d6:aa:7e:00:2c:8b:a1:31:9d:7f:e0:ea:39:52:5d:0d:f7:
         a6:f5:ba:08:8a:ec:fb:d2:bb:fa:25:ae:8b:59:d7:b7:dd:0a:
         01:ee:4c:7f:a0:76:0b:e4:f3:94:84:30:4b:ac:24:a9:38:63:
         00:c0:67:ab:6e:89:76:ae:38:29:3a:0b:18:c6:64:82:88:2f:
         a3:2d:a9:f8:1e:f4:82:2b:de:6b:ab:c8:d6:c1:f7:b0:e5:56:
         1c:aa:b5:52:a1:ee:ba:09:31:e6:9b:e6:fb:63:6c:c0:d1:48:
         dc:77:6b:24:cd:6a:86:1c:42:57:d2:46:45:6d:4e:20:66:47:
         54:52:1a:c1
-----BEGIN CERTIFICATE-----
MIIDaTCCAlGgAwIBAgIBLzANBgkqhkiG9w0BAQsFADCBrTELMAkGA1UEBhMCVVMx
EzARBgNVBAgMCkNhbGlmb3JuaWExFDASBgNVBAcMC0xvcyBBbmdlbGVzMRUwEwYD
VQQKDAxEaWdpQ2VydCBJbmMxGTAXBgNVBAsMEHd3dy5kaWdpY2VydC5jb20xIDAe
BgNVBAMMF0RpZ2lDZXJ0IEdsb2JhbCBSb290IENBMR8wHQYJKoZIhvcNAQkBFhB3
d3cuZGlnaWNlcnQuY29tMB4XDTIzMDYyNjA4MDYzOFoXDTMzMDYyMzA4MDYzOFow
gaUxCzAJBgNVBAYTAlVTMRMwEQYDVQQIDApDYWxpZm9ybmlhMRQwEgYDVQQHDAtM
b3MgQW5nZWxlczEVMBMGA1UECgwMRGlnaUNlcnQgSW5jMRkwFwYDVQQLDBB3d3cu
ZGlnaWNlcnQuY29tMRgwFgYDVQQDDA9tZGFwLmFsaXBheS5jb20xHzAdBgkqhkiG
9w0BCQEWEHd3dy5kaWdpY2VydC5jb20wgZ8wDQYJKoZIhvcNAQEBBQADgY0AMIGJ
AoGBALqtTAkaPIVPYNWTvJ4S9JsW54vSKCmr+TiZ4YQ6G3BuoFut805lXBn7VokW
+2g2Qxo7tjJNY0OwxRBpPZYTf6rkdNSzYKqvW8dW9uFJVdmSunA3c0yRa8wQjljy
4hsbHnI+xrulygjYuyO7v4YC3hHp2XltYKbGDCzjNXLxdr+1AgMBAAGjHjAcMBoG
A1UdEQQTMBGCD21kYXAuYWxpcGF5LmNvbTANBgkqhkiG9w0BAQsFAAOCAQEAraCv
uaSWTLuZ+vrzUmal73NmQIcbAAWe1FPD4amhz2OQXrjlIadidBBERVI0fucTKKQz
i72R20nhDT+/Qb79mKIHXaVdfLAb1QbMb4W8q4mW1ePGG0Gh5MuJ7cVsS8qqksye
dFwjxcXrK9gC3VO1inYEAbhNvCEXoc89jvEzGtaqfgAsi6ExnX/g6jlSXQ33pvW6
CIrs+9K7+iWui1nXt90KAe5Mf6B2C+TzlIQwS6wkqThjAMBnq26Jdq44KToLGMZk
gogvoy2p+B70givea6vI1sH3sOVWHKq1UqHuugkx5pvm+2NswNFI3HdrJM1qhhxC
V9JGRW1OIGZHVFIawQ==
-----END CERTIFICATE-----
