Certificate:
    Data:
        Version: 3 (0x2)
        Serial Number: 46 (0x2e)
        Signature Algorithm: sha256WithRSAEncryption
        Issuer: C=US, ST=California, L=Los Angeles, O=DigiCert Inc, OU=www.digicert.com, CN=DigiCert Global Root CA/emailAddress=www.digicert.com
        Validity
            Not Before: Jun 26 08:06:23 2023 GMT
            Not After : Jun 23 08:06:23 2033 GMT
        Subject: C=US, ST=California, L=Los Angeles, O=DigiCert Inc, OU=www.digicert.com, CN=mobilegw.alipay.com/emailAddress=www.digicert.com
        Subject Public Key Info:
            Public Key Algorithm: rsaEncryption
                RSA Public-Key: (1024 bit)
                Modulus:
                    00:ba:ad:4c:09:1a:3c:85:4f:60:d5:93:bc:9e:12:
                    f4:9b:16:e7:8b:d2:28:29:ab:f9:38:99:e1:84:3a:
                    1b:70:6e:a0:5b:ad:f3:4e:65:5c:19:fb:56:89:16:
                    fb:68:36:43:1a:3b:b6:32:4d:63:43:b0:c5:10:69:
                    3d:96:13:7f:aa:e4:74:d4:b3:60:aa:af:5b:c7:56:
                    f6:e1:49:55:d9:92:ba:70:37:73:4c:91:6b:cc:10:
                    8e:58:f2:e2:1b:1b:1e:72:3e:c6:bb:a5:ca:08:d8:
                    bb:23:bb:bf:86:02:de:11:e9:d9:79:6d:60:a6:c6:
                    0c:2c:e3:35:72:f1:76:bf:b5
                Exponent: 65537 (0x10001)
        X509v3 extensions:
            X509v3 Subject Alternative Name: 
                DNS:mobilegw.alipay.com
    Signature Algorithm: sha256WithRSAEncryption
         46:8a:18:d9:1d:7a:8f:a0:1a:59:44:57:a8:e0:59:5b:d7:c2:
         61:c1:4f:ad:a3:7b:8c:36:b6:d9:91:b0:2e:f4:62:81:86:56:
         50:d0:2e:2a:a4:a9:e1:9d:fd:c4:0d:c4:92:59:6e:bd:6f:67:
         bc:b8:8e:71:91:8a:7b:10:6f:bc:fc:77:4d:dd:cb:9c:97:92:
         da:db:af:3c:95:76:8c:be:dd:c3:af:35:03:98:74:a1:d4:ca:
         aa:7c:a9:c7:24:11:1e:a4:d5:27:2b:ad:56:fc:0e:4a:38:57:
         41:4d:75:03:d0:fd:e5:f5:02:c4:5d:d7:81:f9:09:fb:b9:4c:
         8a:6b:43:83:51:c3:bb:b0:08:b3:5c:ad:6e:56:a5:48:f4:d2:
         b2:e1:8a:26:53:d4:25:94:4f:14:be:49:73:fe:ba:cd:91:7c:
         c1:2c:52:7c:35:b8:b5:c9:3b:4a:96:f2:37:52:e7:db:cd:93:
         ee:f4:94:70:76:24:4f:af:05:51:29:40:f7:45:6b:80:bc:61:
         4b:00:64:71:42:c2:c1:e8:a3:4f:16:2f:de:4d:80:2b:5c:af:
         b8:fe:2f:91:97:13:50:cb:f3:62:60:3c:4b:bb:1a:df:ce:74:
         ac:97:25:ed:7f:e1:42:dc:aa:70:b2:28:cc:57:5d:22:e1:a0:
         4e:d6:17:38
-----BEGIN CERTIFICATE-----
MIIDcTCCAlmgAwIBAgIBLjANBgkqhkiG9w0BAQsFADCBrTELMAkGA1UEBhMCVVMx
EzARBgNVBAgMCkNhbGlmb3JuaWExFDASBgNVBAcMC0xvcyBBbmdlbGVzMRUwEwYD
VQQKDAxEaWdpQ2VydCBJbmMxGTAXBgNVBAsMEHd3dy5kaWdpY2VydC5jb20xIDAe
BgNVBAMMF0RpZ2lDZXJ0IEdsb2JhbCBSb290IENBMR8wHQYJKoZIhvcNAQkBFhB3
d3cuZGlnaWNlcnQuY29tMB4XDTIzMDYyNjA4MDYyM1oXDTMzMDYyMzA4MDYyM1ow
gakxCzAJBgNVBAYTAlVTMRMwEQYDVQQIDApDYWxpZm9ybmlhMRQwEgYDVQQHDAtM
b3MgQW5nZWxlczEVMBMGA1UECgwMRGlnaUNlcnQgSW5jMRkwFwYDVQQLDBB3d3cu
ZGlnaWNlcnQuY29tMRwwGgYDVQQDDBNtb2JpbGVndy5hbGlwYXkuY29tMR8wHQYJ
KoZIhvcNAQkBFhB3d3cuZGlnaWNlcnQuY29tMIGfMA0GCSqGSIb3DQEBAQUAA4GN
ADCBiQKBgQC6rUwJGjyFT2DVk7yeEvSbFueL0igpq/k4meGEOhtwbqBbrfNOZVwZ
+1aJFvtoNkMaO7YyTWNDsMUQaT2WE3+q5HTUs2Cqr1vHVvbhSVXZkrpwN3NMkWvM
EI5Y8uIbGx5yPsa7pcoI2Lsju7+GAt4R6dl5bWCmxgws4zVy8Xa/tQIDAQABoyIw
IDAeBgNVHREEFzAVghNtb2JpbGVndy5hbGlwYXkuY29tMA0GCSqGSIb3DQEBCwUA
A4IBAQBGihjZHXqPoBpZRFeo4Flb18JhwU+to3uMNrbZkbAu9GKBhlZQ0C4qpKnh
nf3EDcSSWW69b2e8uI5xkYp7EG+8/HdN3cucl5La2688lXaMvt3DrzUDmHSh1Mqq
fKnHJBEepNUnK61W/A5KOFdBTXUD0P3l9QLEXdeB+Qn7uUyKa0ODUcO7sAizXK1u
VqVI9NKy4YomU9QllE8Uvklz/rrNkXzBLFJ8Nbi1yTtKlvI3UufbzZPu9JRwdiRP
rwVRKUD3RWuAvGFLAGRxQsLB6KNPFi/eTYArXK+4/i+RlxNQy/NiYDxLuxrfznSs
lyXtf+FC3KpwsijMV10i4aBO1hc4
-----END CERTIFICATE-----
