Certificate:
    Data:
        Version: 3 (0x2)
        Serial Number: 52 (0x34)
        Signature Algorithm: sha256WithRSAEncryption
        Issuer: C=US, ST=California, L=Los Angeles, O=DigiCert Inc, OU=www.digicert.com, CN=DigiCert Global Root CA/emailAddress=www.digicert.com
        Validity
            Not Before: Jun 26 08:06:52 2023 GMT
            Not After : Jun 23 08:06:52 2033 GMT
        Subject: C=US, ST=California, L=Los Angeles, O=DigiCert Inc, OU=www.digicert.com, CN=mobilecns.alipay.com/emailAddress=www.digicert.com
        Subject Public Key Info:
            Public Key Algorithm: rsaEncryption
                RSA Public-Key: (1024 bit)
                Modulus:
                    00:ba:ad:4c:09:1a:3c:85:4f:60:d5:93:bc:9e:12:
                    f4:9b:16:e7:8b:d2:28:29:ab:f9:38:99:e1:84:3a:
                    1b:70:6e:a0:5b:ad:f3:4e:65:5c:19:fb:56:89:16:
                    fb:68:36:43:1a:3b:b6:32:4d:63:43:b0:c5:10:69:
                    3d:96:13:7f:aa:e4:74:d4:b3:60:aa:af:5b:c7:56:
                    f6:e1:49:55:d9:92:ba:70:37:73:4c:91:6b:cc:10:
                    8e:58:f2:e2:1b:1b:1e:72:3e:c6:bb:a5:ca:08:d8:
                    bb:23:bb:bf:86:02:de:11:e9:d9:79:6d:60:a6:c6:
                    0c:2c:e3:35:72:f1:76:bf:b5
                Exponent: 65537 (0x10001)
        X509v3 extensions:
            X509v3 Subject Alternative Name: 
                DNS:mobilecns.alipay.com
    Signature Algorithm: sha256WithRSAEncryption
         c1:9d:46:d7:74:d2:b4:52:5c:91:17:06:5d:d2:40:86:59:01:
         3c:a3:35:13:4b:88:c7:e3:9a:de:b7:d9:65:2e:07:bc:93:af:
         c5:ed:6a:c8:ab:d5:fb:0d:c7:5b:4c:5e:aa:de:00:24:41:28:
         0d:2a:fb:f0:cb:78:96:b7:69:5b:4e:ef:b0:1c:64:e0:9d:ee:
         0a:65:36:62:e5:a9:51:ef:b8:d5:1e:ec:80:d1:8c:60:d1:40:
         7d:e3:1b:59:73:a7:3e:5a:dc:96:dc:5c:06:c0:b3:45:c7:ed:
         95:c2:76:5f:57:3c:bd:bc:a1:9b:b4:a8:6d:45:c6:ce:3b:9f:
         0c:dd:ad:12:ab:11:15:20:ee:9f:7e:b3:03:8f:9a:41:8b:b3:
         b5:7b:31:f4:f7:a8:41:0f:1d:47:ef:58:68:25:97:8e:df:2b:
         08:38:ab:81:53:70:0d:90:ea:2a:04:87:86:e9:ad:30:c8:99:
         72:8e:b2:4c:6c:a1:86:bc:eb:60:30:21:22:09:12:31:96:01:
         8d:f9:ae:82:8a:7b:2c:59:d3:c2:c6:7c:f6:af:5f:0c:6c:71:
         a6:8c:a4:4d:7f:61:e8:ef:88:c7:eb:4c:6a:ff:53:41:16:ab:
         80:22:8d:a3:52:fe:6b:f4:03:50:4b:1a:5f:dc:18:c7:ee:01:
         2e:29:9c:e2
-----BEGIN CERTIFICATE-----
MIIDczCCAlugAwIBAgIBNDANBgkqhkiG9w0BAQsFADCBrTELMAkGA1UEBhMCVVMx
EzARBgNVBAgMCkNhbGlmb3JuaWExFDASBgNVBAcMC0xvcyBBbmdlbGVzMRUwEwYD
VQQKDAxEaWdpQ2VydCBJbmMxGTAXBgNVBAsMEHd3dy5kaWdpY2VydC5jb20xIDAe
BgNVBAMMF0RpZ2lDZXJ0IEdsb2JhbCBSb290IENBMR8wHQYJKoZIhvcNAQkBFhB3
d3cuZGlnaWNlcnQuY29tMB4XDTIzMDYyNjA4MDY1MloXDTMzMDYyMzA4MDY1Mlow
gaoxCzAJBgNVBAYTAlVTMRMwEQYDVQQIDApDYWxpZm9ybmlhMRQwEgYDVQQHDAtM
b3MgQW5nZWxlczEVMBMGA1UECgwMRGlnaUNlcnQgSW5jMRkwFwYDVQQLDBB3d3cu
ZGlnaWNlcnQuY29tMR0wGwYDVQQDDBRtb2JpbGVjbnMuYWxpcGF5LmNvbTEfMB0G
CSqGSIb3DQEJARYQd3d3LmRpZ2ljZXJ0LmNvbTCBnzANBgkqhkiG9w0BAQEFAAOB
jQAwgYkCgYEAuq1MCRo8hU9g1ZO8nhL0mxbni9IoKav5OJnhhDobcG6gW63zTmVc
GftWiRb7aDZDGju2Mk1jQ7DFEGk9lhN/quR01LNgqq9bx1b24UlV2ZK6cDdzTJFr
zBCOWPLiGxsecj7Gu6XKCNi7I7u/hgLeEenZeW1gpsYMLOM1cvF2v7UCAwEAAaMj
MCEwHwYDVR0RBBgwFoIUbW9iaWxlY25zLmFsaXBheS5jb20wDQYJKoZIhvcNAQEL
BQADggEBAMGdRtd00rRSXJEXBl3SQIZZATyjNRNLiMfjmt632WUuB7yTr8Xtasir
1fsNx1tMXqreACRBKA0q+/DLeJa3aVtO77AcZOCd7gplNmLlqVHvuNUe7IDRjGDR
QH3jG1lzpz5a3JbcXAbAs0XH7ZXCdl9XPL28oZu0qG1Fxs47nwzdrRKrERUg7p9+
swOPmkGLs7V7MfT3qEEPHUfvWGgll47fKwg4q4FTcA2Q6ioEh4bprTDImXKOskxs
oYa862AwISIJEjGWAY35roKKeyxZ08LGfPavXwxscaaMpE1/YejviMfrTGr/U0EW
q4AijaNS/mv0A1BLGl/cGMfuAS4pnOI=
-----END CERTIFICATE-----
