Certificate:
    Data:
        Version: 3 (0x2)
        Serial Number: 23 (0x17)
    Signature Algorithm: sha256WithRSAEncryption
        Issuer: C=US, ST=California, L=Los Angeles, O=DigiCert Inc, OU=www.digicert.com, CN=DigiCert Global Root CA/emailAddress=www.digicert.com
        Validity
            Not Before: Jun 15 16:15:09 2021 GMT
            Not After : Jun 13 16:15:09 2031 GMT
        Subject: C=US, ST=California, L=Los Angeles, O=DigiCert Inc, OU=www.digicert.com, CN=reports.baidu.com/emailAddress=www.digicert.com
        Subject Public Key Info:
            Public Key Algorithm: rsaEncryption
                Public-Key: (1024 bit)
                Modulus:
                    00:ba:ad:4c:09:1a:3c:85:4f:60:d5:93:bc:9e:12:
                    f4:9b:16:e7:8b:d2:28:29:ab:f9:38:99:e1:84:3a:
                    1b:70:6e:a0:5b:ad:f3:4e:65:5c:19:fb:56:89:16:
                    fb:68:36:43:1a:3b:b6:32:4d:63:43:b0:c5:10:69:
                    3d:96:13:7f:aa:e4:74:d4:b3:60:aa:af:5b:c7:56:
                    f6:e1:49:55:d9:92:ba:70:37:73:4c:91:6b:cc:10:
                    8e:58:f2:e2:1b:1b:1e:72:3e:c6:bb:a5:ca:08:d8:
                    bb:23:bb:bf:86:02:de:11:e9:d9:79:6d:60:a6:c6:
                    0c:2c:e3:35:72:f1:76:bf:b5
                Exponent: 65537 (0x10001)
        X509v3 extensions:
            X509v3 Subject Alternative Name: 
                DNS:reports.baidu.com
    Signature Algorithm: sha256WithRSAEncryption
         18:ec:15:88:67:46:d6:13:6f:d5:71:35:cd:af:4c:72:9a:8c:
         3e:55:36:98:21:85:73:d0:b9:3e:79:07:c4:a4:4b:58:9b:61:
         46:f4:7a:19:3e:63:97:0f:a5:a9:70:39:f4:c8:c9:4a:e2:2d:
         9a:20:50:a3:6c:2f:46:89:36:99:25:e6:6e:ee:94:c7:f0:d6:
         c9:72:2d:86:49:5d:6a:a3:6b:c9:6d:ce:43:ec:7a:ea:65:4b:
         60:bb:a3:4d:2e:df:f4:d6:5f:1b:01:ce:11:eb:7f:86:b8:d0:
         20:73:19:15:6b:54:04:68:24:90:75:33:be:35:7c:05:1a:18:
         25:89:bc:36:39:ce:06:54:ec:0a:fd:27:07:d4:d6:e0:3c:da:
         24:9e:e5:b3:b8:bb:90:d7:65:86:63:b2:ae:98:2a:74:90:d2:
         e9:c1:83:a1:c2:7a:a9:70:dd:cd:51:50:10:68:f1:71:7f:d5:
         f3:7a:b4:18:15:0c:87:15:d6:0f:6f:20:ed:b7:05:b7:8c:d5:
         46:95:e6:c7:f8:26:93:b0:b9:f4:98:50:5f:6e:0a:ab:14:0b:
         fe:ad:bc:dd:a3:93:4d:65:06:05:77:28:53:28:72:a5:10:a9:
         e3:d1:4f:3c:06:01:4e:42:d2:65:b8:fd:bb:0f:13:f0:db:4c:
         8e:b7:61:c2
-----BEGIN CERTIFICATE-----
MIIDbTCCAlWgAwIBAgIBFzANBgkqhkiG9w0BAQsFADCBrTELMAkGA1UEBhMCVVMx
EzARBgNVBAgMCkNhbGlmb3JuaWExFDASBgNVBAcMC0xvcyBBbmdlbGVzMRUwEwYD
VQQKDAxEaWdpQ2VydCBJbmMxGTAXBgNVBAsMEHd3dy5kaWdpY2VydC5jb20xIDAe
BgNVBAMMF0RpZ2lDZXJ0IEdsb2JhbCBSb290IENBMR8wHQYJKoZIhvcNAQkBFhB3
d3cuZGlnaWNlcnQuY29tMB4XDTIxMDYxNTE2MTUwOVoXDTMxMDYxMzE2MTUwOVow
gacxCzAJBgNVBAYTAlVTMRMwEQYDVQQIDApDYWxpZm9ybmlhMRQwEgYDVQQHDAtM
b3MgQW5nZWxlczEVMBMGA1UECgwMRGlnaUNlcnQgSW5jMRkwFwYDVQQLDBB3d3cu
ZGlnaWNlcnQuY29tMRowGAYDVQQDDBFyZXBvcnRzLmJhaWR1LmNvbTEfMB0GCSqG
SIb3DQEJARYQd3d3LmRpZ2ljZXJ0LmNvbTCBnzANBgkqhkiG9w0BAQEFAAOBjQAw
gYkCgYEAuq1MCRo8hU9g1ZO8nhL0mxbni9IoKav5OJnhhDobcG6gW63zTmVcGftW
iRb7aDZDGju2Mk1jQ7DFEGk9lhN/quR01LNgqq9bx1b24UlV2ZK6cDdzTJFrzBCO
WPLiGxsecj7Gu6XKCNi7I7u/hgLeEenZeW1gpsYMLOM1cvF2v7UCAwEAAaMgMB4w
HAYDVR0RBBUwE4IRcmVwb3J0cy5iYWlkdS5jb20wDQYJKoZIhvcNAQELBQADggEB
ABjsFYhnRtYTb9VxNc2vTHKajD5VNpghhXPQuT55B8SkS1ibYUb0ehk+Y5cPpalw
OfTIyUriLZogUKNsL0aJNpkl5m7ulMfw1slyLYZJXWqja8ltzkPseuplS2C7o00u
3/TWXxsBzhHrf4a40CBzGRVrVARoJJB1M741fAUaGCWJvDY5zgZU7Ar9JwfU1uA8
2iSe5bO4u5DXZYZjsq6YKnSQ0unBg6HCeqlw3c1RUBBo8XF/1fN6tBgVDIcV1g9v
IO23BbeM1UaV5sf4JpOwufSYUF9uCqsUC/6tvN2jk01lBgV3KFMocqUQqePRTzwG
AU5C0mW4/bsPE/DbTI63YcI=
-----END CERTIFICATE-----
