Certificate:
    Data:
        Version: 3 (0x2)
        Serial Number: 19 (0x13)
        Signature Algorithm: sha256WithRSAEncryption
        Issuer: C=US, ST=California, L=Los Angeles, O=DigiCert Inc, OU=www.digicert.com, CN=DigiCert Global Root CA/emailAddress=www.digicert.com
        Validity
            Not Before: Jun 26 08:05:03 2023 GMT
            Not After : Jun 23 08:05:03 2033 GMT
        Subject: C=US, ST=California, L=Los Angeles, O=DigiCert Inc, OU=www.digicert.com, CN=saveu5-normal-lq.zijieapi.com/emailAddress=www.digicert.com
        Subject Public Key Info:
            Public Key Algorithm: rsaEncryption
                RSA Public-Key: (1024 bit)
                Modulus:
                    00:ba:ad:4c:09:1a:3c:85:4f:60:d5:93:bc:9e:12:
                    f4:9b:16:e7:8b:d2:28:29:ab:f9:38:99:e1:84:3a:
                    1b:70:6e:a0:5b:ad:f3:4e:65:5c:19:fb:56:89:16:
                    fb:68:36:43:1a:3b:b6:32:4d:63:43:b0:c5:10:69:
                    3d:96:13:7f:aa:e4:74:d4:b3:60:aa:af:5b:c7:56:
                    f6:e1:49:55:d9:92:ba:70:37:73:4c:91:6b:cc:10:
                    8e:58:f2:e2:1b:1b:1e:72:3e:c6:bb:a5:ca:08:d8:
                    bb:23:bb:bf:86:02:de:11:e9:d9:79:6d:60:a6:c6:
                    0c:2c:e3:35:72:f1:76:bf:b5
                Exponent: 65537 (0x10001)
        X509v3 extensions:
            X509v3 Subject Alternative Name: 
                DNS:saveu5-normal-lq.zijieapi.com
    Signature Algorithm: sha256WithRSAEncryption
         0a:b5:84:1a:8d:4a:9c:36:5b:e9:3f:30:a5:3b:49:45:59:96:
         1c:b3:4f:1b:cb:ba:fb:df:8e:64:44:c0:15:de:6e:8c:b6:c8:
         93:64:ba:f9:65:f4:44:8a:68:ba:88:9a:7a:9f:c4:31:6b:44:
         93:07:e5:ae:a0:3f:7f:b1:0c:f3:c3:31:84:91:06:3b:15:f0:
         bf:60:9f:46:43:b9:c1:82:94:63:91:90:67:2f:17:8c:59:34:
         95:d6:ef:c8:fd:fd:ca:a0:5e:4a:95:5f:4b:d8:bb:22:39:20:
         65:7c:32:9e:82:13:37:37:89:aa:83:5b:f6:5c:7f:c0:84:87:
         62:e9:32:ea:05:8c:87:43:47:29:d3:29:04:6c:59:98:60:5e:
         68:44:bf:81:fd:82:d3:c8:ea:0a:1c:21:58:3d:31:60:e6:df:
         dd:73:3d:38:2b:04:95:e4:1d:ab:d6:b9:5c:05:f0:80:60:87:
         93:da:b5:cb:01:45:1b:bc:51:58:47:bd:a1:90:b3:77:95:7a:
         da:9e:44:37:c3:1a:b3:d4:4a:9b:6b:a6:69:1b:8a:af:b7:95:
         27:5e:31:2b:be:0f:87:94:c6:48:9e:fd:ac:61:3e:f3:12:4a:
         eb:d7:9a:7e:b4:51:b6:42:45:f3:29:b6:06:4a:d5:0c:c3:6d:
         cc:cc:20:4b
-----BEGIN CERTIFICATE-----
MIIDhTCCAm2gAwIBAgIBEzANBgkqhkiG9w0BAQsFADCBrTELMAkGA1UEBhMCVVMx
EzARBgNVBAgMCkNhbGlmb3JuaWExFDASBgNVBAcMC0xvcyBBbmdlbGVzMRUwEwYD
VQQKDAxEaWdpQ2VydCBJbmMxGTAXBgNVBAsMEHd3dy5kaWdpY2VydC5jb20xIDAe
BgNVBAMMF0RpZ2lDZXJ0IEdsb2JhbCBSb290IENBMR8wHQYJKoZIhvcNAQkBFhB3
d3cuZGlnaWNlcnQuY29tMB4XDTIzMDYyNjA4MDUwM1oXDTMzMDYyMzA4MDUwM1ow
gbMxCzAJBgNVBAYTAlVTMRMwEQYDVQQIDApDYWxpZm9ybmlhMRQwEgYDVQQHDAtM
b3MgQW5nZWxlczEVMBMGA1UECgwMRGlnaUNlcnQgSW5jMRkwFwYDVQQLDBB3d3cu
ZGlnaWNlcnQuY29tMSYwJAYDVQQDDB1zYXZldTUtbm9ybWFsLWxxLnppamllYXBp
LmNvbTEfMB0GCSqGSIb3DQEJARYQd3d3LmRpZ2ljZXJ0LmNvbTCBnzANBgkqhkiG
9w0BAQEFAAOBjQAwgYkCgYEAuq1MCRo8hU9g1ZO8nhL0mxbni9IoKav5OJnhhDob
cG6gW63zTmVcGftWiRb7aDZDGju2Mk1jQ7DFEGk9lhN/quR01LNgqq9bx1b24UlV
2ZK6cDdzTJFrzBCOWPLiGxsecj7Gu6XKCNi7I7u/hgLeEenZeW1gpsYMLOM1cvF2
v7UCAwEAAaMsMCowKAYDVR0RBCEwH4Idc2F2ZXU1LW5vcm1hbC1scS56aWppZWFw
aS5jb20wDQYJKoZIhvcNAQELBQADggEBAAq1hBqNSpw2W+k/MKU7SUVZlhyzTxvL
uvvfjmREwBXeboy2yJNkuvll9ESKaLqImnqfxDFrRJMH5a6gP3+xDPPDMYSRBjsV
8L9gn0ZDucGClGORkGcvF4xZNJXW78j9/cqgXkqVX0vYuyI5IGV8Mp6CEzc3iaqD
W/Zcf8CEh2LpMuoFjIdDRynTKQRsWZhgXmhEv4H9gtPI6gocIVg9MWDm391zPTgr
BJXkHavWuVwF8IBgh5PatcsBRRu8UVhHvaGQs3eVetqeRDfDGrPUSptrpmkbiq+3
lSdeMSu+D4eUxkie/axhPvMSSuvXmn60UbZCRfMptgZK1QzDbczMIEs=
-----END CERTIFICATE-----
