Certificate:
    Data:
        Version: 3 (0x2)
        Serial Number: 70 (0x46)
        Signature Algorithm: sha256WithRSAEncryption
        Issuer: C=US, ST=California, L=Los Angeles, O=DigiCert Inc, OU=www.digicert.com, CN=DigiCert Global Root CA/emailAddress=www.digicert.com
        Validity
            Not Before: Jun 26 08:07:17 2023 GMT
            Not After : Jun 23 08:07:17 2033 GMT
        Subject: C=US, ST=California, L=Los Angeles, O=DigiCert Inc, OU=www.digicert.com, CN=slardar-bd.feishu.cn/emailAddress=www.digicert.com
        Subject Public Key Info:
            Public Key Algorithm: rsaEncryption
                RSA Public-Key: (1024 bit)
                Modulus:
                    00:ba:ad:4c:09:1a:3c:85:4f:60:d5:93:bc:9e:12:
                    f4:9b:16:e7:8b:d2:28:29:ab:f9:38:99:e1:84:3a:
                    1b:70:6e:a0:5b:ad:f3:4e:65:5c:19:fb:56:89:16:
                    fb:68:36:43:1a:3b:b6:32:4d:63:43:b0:c5:10:69:
                    3d:96:13:7f:aa:e4:74:d4:b3:60:aa:af:5b:c7:56:
                    f6:e1:49:55:d9:92:ba:70:37:73:4c:91:6b:cc:10:
                    8e:58:f2:e2:1b:1b:1e:72:3e:c6:bb:a5:ca:08:d8:
                    bb:23:bb:bf:86:02:de:11:e9:d9:79:6d:60:a6:c6:
                    0c:2c:e3:35:72:f1:76:bf:b5
                Exponent: 65537 (0x10001)
        X509v3 extensions:
            X509v3 Subject Alternative Name: 
                DNS:slardar-bd.feishu.cn
    Signature Algorithm: sha256WithRSAEncryption
         73:6a:fd:6e:8b:d6:1c:9f:8a:92:4e:38:26:a1:99:df:2b:36:
         9c:eb:74:0a:4f:f4:19:b6:10:4c:9d:d2:bd:ce:a2:7b:8b:79:
         6a:f0:c4:90:3e:de:d6:8e:3c:87:92:5b:c3:2a:28:d4:57:2c:
         55:1d:a8:10:50:2e:93:84:f7:89:be:68:bc:8b:73:8f:17:d0:
         72:c3:79:11:b3:1e:88:54:4c:0a:32:73:73:a5:9a:be:a7:90:
         2c:7b:9f:c2:72:e1:74:c6:34:30:f8:64:f3:a0:0e:94:4c:e2:
         8f:7b:96:50:9f:62:83:39:4b:7e:43:a3:1d:2c:b5:89:7f:e5:
         06:03:f2:e9:24:7a:9b:26:34:b8:18:58:1f:22:a2:db:0c:67:
         3a:bf:4d:98:ae:21:4c:0f:b9:02:76:77:1d:66:4a:15:cb:7d:
         d2:5d:34:99:db:72:b7:9c:4a:ce:fa:b7:12:3e:37:16:87:9e:
         2f:6b:c7:cd:6e:66:4d:37:97:e4:15:97:5b:cc:f2:ff:21:23:
         b7:89:4d:cf:4d:da:76:c7:f4:7b:0f:c0:38:ff:a6:0a:19:69:
         70:a1:75:0d:79:d0:37:4b:9f:7a:ef:d2:c9:8d:f4:25:ef:40:
         32:0b:b3:39:f9:a0:88:39:49:01:46:9c:96:60:3d:9c:7c:86:
         83:b6:e9:a6
-----BEGIN CERTIFICATE-----
MIIDczCCAlugAwIBAgIBRjANBgkqhkiG9w0BAQsFADCBrTELMAkGA1UEBhMCVVMx
EzARBgNVBAgMCkNhbGlmb3JuaWExFDASBgNVBAcMC0xvcyBBbmdlbGVzMRUwEwYD
VQQKDAxEaWdpQ2VydCBJbmMxGTAXBgNVBAsMEHd3dy5kaWdpY2VydC5jb20xIDAe
BgNVBAMMF0RpZ2lDZXJ0IEdsb2JhbCBSb290IENBMR8wHQYJKoZIhvcNAQkBFhB3
d3cuZGlnaWNlcnQuY29tMB4XDTIzMDYyNjA4MDcxN1oXDTMzMDYyMzA4MDcxN1ow
gaoxCzAJBgNVBAYTAlVTMRMwEQYDVQQIDApDYWxpZm9ybmlhMRQwEgYDVQQHDAtM
b3MgQW5nZWxlczEVMBMGA1UECgwMRGlnaUNlcnQgSW5jMRkwFwYDVQQLDBB3d3cu
ZGlnaWNlcnQuY29tMR0wGwYDVQQDDBRzbGFyZGFyLWJkLmZlaXNodS5jbjEfMB0G
CSqGSIb3DQEJARYQd3d3LmRpZ2ljZXJ0LmNvbTCBnzANBgkqhkiG9w0BAQEFAAOB
jQAwgYkCgYEAuq1MCRo8hU9g1ZO8nhL0mxbni9IoKav5OJnhhDobcG6gW63zTmVc
GftWiRb7aDZDGju2Mk1jQ7DFEGk9lhN/quR01LNgqq9bx1b24UlV2ZK6cDdzTJFr
zBCOWPLiGxsecj7Gu6XKCNi7I7u/hgLeEenZeW1gpsYMLOM1cvF2v7UCAwEAAaMj
MCEwHwYDVR0RBBgwFoIUc2xhcmRhci1iZC5mZWlzaHUuY24wDQYJKoZIhvcNAQEL
BQADggEBAHNq/W6L1hyfipJOOCahmd8rNpzrdApP9Bm2EEyd0r3OonuLeWrwxJA+
3taOPIeSW8MqKNRXLFUdqBBQLpOE94m+aLyLc48X0HLDeRGzHohUTAoyc3Olmr6n
kCx7n8Jy4XTGNDD4ZPOgDpRM4o97llCfYoM5S35Dox0stYl/5QYD8ukkepsmNLgY
WB8iotsMZzq/TZiuIUwPuQJ2dx1mShXLfdJdNJnbcrecSs76txI+NxaHni9rx81u
Zk03l+QVl1vM8v8hI7eJTc9N2nbH9HsPwDj/pgoZaXChdQ150DdLn3rv0smN9CXv
QDILszn5oIg5SQFGnJZgPZx8hoO26aY=
-----END CERTIFICATE-----
