Certificate:
    Data:
        Version: 3 (0x2)
        Serial Number: 37 (0x25)
        Signature Algorithm: sha256WithRSAEncryption
        Issuer: C=US, ST=California, L=Los Angeles, O=DigiCert Inc, OU=www.digicert.com, CN=DigiCert Global Root CA/emailAddress=www.digicert.com
        Validity
            Not Before: Jun 26 08:05:15 2023 GMT
            Not After : Jun 23 08:05:15 2033 GMT
        Subject: C=US, ST=California, L=Los Angeles, O=DigiCert Inc, OU=www.digicert.com, CN=unipayupg.wostore.cn/emailAddress=www.digicert.com
        Subject Public Key Info:
            Public Key Algorithm: rsaEncryption
                RSA Public-Key: (1024 bit)
                Modulus:
                    00:ba:ad:4c:09:1a:3c:85:4f:60:d5:93:bc:9e:12:
                    f4:9b:16:e7:8b:d2:28:29:ab:f9:38:99:e1:84:3a:
                    1b:70:6e:a0:5b:ad:f3:4e:65:5c:19:fb:56:89:16:
                    fb:68:36:43:1a:3b:b6:32:4d:63:43:b0:c5:10:69:
                    3d:96:13:7f:aa:e4:74:d4:b3:60:aa:af:5b:c7:56:
                    f6:e1:49:55:d9:92:ba:70:37:73:4c:91:6b:cc:10:
                    8e:58:f2:e2:1b:1b:1e:72:3e:c6:bb:a5:ca:08:d8:
                    bb:23:bb:bf:86:02:de:11:e9:d9:79:6d:60:a6:c6:
                    0c:2c:e3:35:72:f1:76:bf:b5
                Exponent: 65537 (0x10001)
        X509v3 extensions:
            X509v3 Subject Alternative Name: 
                DNS:unipayupg.wostore.cn
    Signature Algorithm: sha256WithRSAEncryption
         38:3c:c1:24:2e:38:9c:c6:7f:d2:96:a3:6f:a6:2b:f5:e0:8b:
         77:3c:46:12:92:7d:d6:95:19:dd:44:6f:39:22:52:fe:03:f4:
         1e:bc:b1:86:67:58:74:b8:ed:78:ea:d0:3a:6c:f7:c6:ba:27:
         58:ce:44:a1:0b:35:96:06:26:8e:11:93:76:28:b9:c3:0a:77:
         70:9f:5f:f9:da:60:5f:d6:9d:a5:01:43:86:ee:ea:f8:03:50:
         4b:0d:50:13:ae:9f:2f:c6:91:2d:3d:9a:62:8e:19:a8:f9:dc:
         03:d9:f8:0d:6a:ee:1f:4a:ae:54:5b:66:6d:e7:a8:94:c2:d2:
         71:9f:0d:cc:58:4b:8e:5f:e2:18:89:12:de:b3:64:59:55:c1:
         a5:8a:38:53:5a:2a:26:40:a6:ee:54:51:80:0f:78:c4:aa:61:
         ac:ae:99:de:03:66:14:04:e3:bd:32:05:6e:ac:cc:2c:28:b1:
         e3:b4:95:5e:fe:74:40:2d:44:44:3b:e0:e7:d2:30:aa:c5:49:
         4c:4a:c8:77:2c:2c:a1:cd:37:7e:03:d7:6f:f3:21:ef:ba:e6:
         8e:0c:7e:3c:8c:da:e9:f6:fd:ee:79:c3:39:c2:f5:f0:ef:ad:
         9b:07:fe:b7:9f:7c:ae:a9:ae:d1:79:22:69:18:b8:cc:0e:ff:
         96:57:d0:8a
-----BEGIN CERTIFICATE-----
MIIDczCCAlugAwIBAgIBJTANBgkqhkiG9w0BAQsFADCBrTELMAkGA1UEBhMCVVMx
EzARBgNVBAgMCkNhbGlmb3JuaWExFDASBgNVBAcMC0xvcyBBbmdlbGVzMRUwEwYD
VQQKDAxEaWdpQ2VydCBJbmMxGTAXBgNVBAsMEHd3dy5kaWdpY2VydC5jb20xIDAe
BgNVBAMMF0RpZ2lDZXJ0IEdsb2JhbCBSb290IENBMR8wHQYJKoZIhvcNAQkBFhB3
d3cuZGlnaWNlcnQuY29tMB4XDTIzMDYyNjA4MDUxNVoXDTMzMDYyMzA4MDUxNVow
gaoxCzAJBgNVBAYTAlVTMRMwEQYDVQQIDApDYWxpZm9ybmlhMRQwEgYDVQQHDAtM
b3MgQW5nZWxlczEVMBMGA1UECgwMRGlnaUNlcnQgSW5jMRkwFwYDVQQLDBB3d3cu
ZGlnaWNlcnQuY29tMR0wGwYDVQQDDBR1bmlwYXl1cGcud29zdG9yZS5jbjEfMB0G
CSqGSIb3DQEJARYQd3d3LmRpZ2ljZXJ0LmNvbTCBnzANBgkqhkiG9w0BAQEFAAOB
jQAwgYkCgYEAuq1MCRo8hU9g1ZO8nhL0mxbni9IoKav5OJnhhDobcG6gW63zTmVc
GftWiRb7aDZDGju2Mk1jQ7DFEGk9lhN/quR01LNgqq9bx1b24UlV2ZK6cDdzTJFr
zBCOWPLiGxsecj7Gu6XKCNi7I7u/hgLeEenZeW1gpsYMLOM1cvF2v7UCAwEAAaMj
MCEwHwYDVR0RBBgwFoIUdW5pcGF5dXBnLndvc3RvcmUuY24wDQYJKoZIhvcNAQEL
BQADggEBADg8wSQuOJzGf9KWo2+mK/Xgi3c8RhKSfdaVGd1EbzkiUv4D9B68sYZn
WHS47Xjq0Dps98a6J1jORKELNZYGJo4Rk3YoucMKd3CfX/naYF/WnaUBQ4bu6vgD
UEsNUBOuny/GkS09mmKOGaj53APZ+A1q7h9KrlRbZm3nqJTC0nGfDcxYS45f4hiJ
Et6zZFlVwaWKOFNaKiZApu5UUYAPeMSqYayumd4DZhQE470yBW6szCwoseO0lV7+
dEAtREQ74OfSMKrFSUxKyHcsLKHNN34D12/zIe+65o4MfjyM2un2/e55wznC9fDv
rZsH/reffK6prtF5ImkYuMwO/5ZX0Io=
-----END CERTIFICATE-----
