Certificate:
    Data:
        Version: 3 (0x2)
        Serial Number: 68 (0x44)
        Signature Algorithm: sha256WithRSAEncryption
        Issuer: C=US, ST=California, L=Los Angeles, O=DigiCert Inc, OU=www.digicert.com, CN=DigiCert Global Root CA/emailAddress=www.digicert.com
        Validity
            Not Before: Jun 26 08:07:14 2023 GMT
            Not After : Jun 23 08:07:14 2033 GMT
        Subject: C=US, ST=California, L=Los Angeles, O=DigiCert Inc, OU=www.digicert.com, CN=userservice.kugou.com/emailAddress=www.digicert.com
        Subject Public Key Info:
            Public Key Algorithm: rsaEncryption
                RSA Public-Key: (1024 bit)
                Modulus:
                    00:ba:ad:4c:09:1a:3c:85:4f:60:d5:93:bc:9e:12:
                    f4:9b:16:e7:8b:d2:28:29:ab:f9:38:99:e1:84:3a:
                    1b:70:6e:a0:5b:ad:f3:4e:65:5c:19:fb:56:89:16:
                    fb:68:36:43:1a:3b:b6:32:4d:63:43:b0:c5:10:69:
                    3d:96:13:7f:aa:e4:74:d4:b3:60:aa:af:5b:c7:56:
                    f6:e1:49:55:d9:92:ba:70:37:73:4c:91:6b:cc:10:
                    8e:58:f2:e2:1b:1b:1e:72:3e:c6:bb:a5:ca:08:d8:
                    bb:23:bb:bf:86:02:de:11:e9:d9:79:6d:60:a6:c6:
                    0c:2c:e3:35:72:f1:76:bf:b5
                Exponent: 65537 (0x10001)
        X509v3 extensions:
            X509v3 Subject Alternative Name: 
                DNS:userservice.kugou.com
    Signature Algorithm: sha256WithRSAEncryption
         2c:67:72:74:cf:47:7b:c3:d3:8f:49:23:85:cc:c5:96:11:23:
         c7:0a:84:28:0e:08:bd:49:2c:50:13:27:c5:c5:ed:26:d5:b4:
         22:02:ba:c5:6f:52:f3:04:28:a8:d4:33:eb:6a:57:ee:95:f7:
         3d:c8:eb:e0:9f:99:8c:20:31:16:f2:b8:0f:87:b0:58:68:42:
         7c:d7:c4:ec:52:3b:5b:25:05:54:7b:4c:0c:a7:14:2c:6f:8b:
         57:50:af:a7:b8:d2:6a:45:98:f9:ce:16:8a:8a:9f:78:45:99:
         4b:7d:3e:3f:d2:fe:cb:db:fc:7a:84:05:a2:b0:4f:6f:18:85:
         de:34:48:19:2f:51:10:cb:45:d6:68:7e:6a:09:a4:22:e8:b7:
         11:19:50:53:70:9b:c4:09:c8:c5:30:0d:ff:b9:6e:8a:a9:54:
         d3:0b:85:a7:6c:2d:2f:52:0b:3c:14:90:17:4c:4b:8a:07:30:
         14:44:eb:fe:6f:2a:e8:f7:e4:a7:a8:bc:90:99:02:b7:6a:38:
         60:17:65:11:31:aa:21:07:16:f9:ad:c0:e1:40:3f:54:0d:a6:
         c6:81:52:75:4e:33:60:56:7a:9f:e6:75:61:1a:17:c0:1c:76:
         17:b6:34:8a:e7:c7:a3:6b:8d:c3:1b:0c:22:99:69:60:2a:9e:
         99:67:3a:e9
-----BEGIN CERTIFICATE-----
MIIDdTCCAl2gAwIBAgIBRDANBgkqhkiG9w0BAQsFADCBrTELMAkGA1UEBhMCVVMx
EzARBgNVBAgMCkNhbGlmb3JuaWExFDASBgNVBAcMC0xvcyBBbmdlbGVzMRUwEwYD
VQQKDAxEaWdpQ2VydCBJbmMxGTAXBgNVBAsMEHd3dy5kaWdpY2VydC5jb20xIDAe
BgNVBAMMF0RpZ2lDZXJ0IEdsb2JhbCBSb290IENBMR8wHQYJKoZIhvcNAQkBFhB3
d3cuZGlnaWNlcnQuY29tMB4XDTIzMDYyNjA4MDcxNFoXDTMzMDYyMzA4MDcxNFow
gasxCzAJBgNVBAYTAlVTMRMwEQYDVQQIDApDYWxpZm9ybmlhMRQwEgYDVQQHDAtM
b3MgQW5nZWxlczEVMBMGA1UECgwMRGlnaUNlcnQgSW5jMRkwFwYDVQQLDBB3d3cu
ZGlnaWNlcnQuY29tMR4wHAYDVQQDDBV1c2Vyc2VydmljZS5rdWdvdS5jb20xHzAd
BgkqhkiG9w0BCQEWEHd3dy5kaWdpY2VydC5jb20wgZ8wDQYJKoZIhvcNAQEBBQAD
gY0AMIGJAoGBALqtTAkaPIVPYNWTvJ4S9JsW54vSKCmr+TiZ4YQ6G3BuoFut805l
XBn7VokW+2g2Qxo7tjJNY0OwxRBpPZYTf6rkdNSzYKqvW8dW9uFJVdmSunA3c0yR
a8wQjljy4hsbHnI+xrulygjYuyO7v4YC3hHp2XltYKbGDCzjNXLxdr+1AgMBAAGj
JDAiMCAGA1UdEQQZMBeCFXVzZXJzZXJ2aWNlLmt1Z291LmNvbTANBgkqhkiG9w0B
AQsFAAOCAQEALGdydM9He8PTj0kjhczFlhEjxwqEKA4IvUksUBMnxcXtJtW0IgK6
xW9S8wQoqNQz62pX7pX3Pcjr4J+ZjCAxFvK4D4ewWGhCfNfE7FI7WyUFVHtMDKcU
LG+LV1Cvp7jSakWY+c4WioqfeEWZS30+P9L+y9v8eoQForBPbxiF3jRIGS9REMtF
1mh+agmkIui3ERlQU3CbxAnIxTAN/7luiqlU0wuFp2wtL1ILPBSQF0xLigcwFETr
/m8q6Pfkp6i8kJkCt2o4YBdlETGqIQcW+a3A4UA/VA2mxoFSdU4zYFZ6n+Z1YRoX
wBx2F7Y0iufHo2uNwxsMIplpYCqemWc66Q==
-----END CERTIFICATE-----
