Certificate:
    Data:
        Version: 3 (0x2)
        Serial Number: 39 (0x27)
        Signature Algorithm: sha256WithRSAEncryption
        Issuer: C=US, ST=California, L=Los Angeles, O=DigiCert Inc, OU=www.digicert.com, CN=DigiCert Global Root CA/emailAddress=www.digicert.com
        Validity
            Not Before: Jun 26 08:05:16 2023 GMT
            Not After : Jun 23 08:05:16 2033 GMT
        Subject: C=US, ST=California, L=Los Angeles, O=DigiCert Inc, OU=www.digicert.com, CN=v95-sh-cold.douyinvod.com/emailAddress=www.digicert.com
        Subject Public Key Info:
            Public Key Algorithm: rsaEncryption
                RSA Public-Key: (1024 bit)
                Modulus:
                    00:ba:ad:4c:09:1a:3c:85:4f:60:d5:93:bc:9e:12:
                    f4:9b:16:e7:8b:d2:28:29:ab:f9:38:99:e1:84:3a:
                    1b:70:6e:a0:5b:ad:f3:4e:65:5c:19:fb:56:89:16:
                    fb:68:36:43:1a:3b:b6:32:4d:63:43:b0:c5:10:69:
                    3d:96:13:7f:aa:e4:74:d4:b3:60:aa:af:5b:c7:56:
                    f6:e1:49:55:d9:92:ba:70:37:73:4c:91:6b:cc:10:
                    8e:58:f2:e2:1b:1b:1e:72:3e:c6:bb:a5:ca:08:d8:
                    bb:23:bb:bf:86:02:de:11:e9:d9:79:6d:60:a6:c6:
                    0c:2c:e3:35:72:f1:76:bf:b5
                Exponent: 65537 (0x10001)
        X509v3 extensions:
            X509v3 Subject Alternative Name: 
                DNS:v95-sh-cold.douyinvod.com
    Signature Algorithm: sha256WithRSAEncryption
         33:a2:ff:63:21:81:3d:fd:fe:e3:81:74:8d:20:3b:43:98:c2:
         42:54:07:26:91:ff:99:ae:89:a6:13:25:c2:50:c6:4f:09:bb:
         3b:84:0d:5d:ff:34:49:60:86:02:78:d2:d8:53:f8:d9:b7:07:
         b9:e0:f9:03:b8:bd:d1:e6:6a:ec:78:d9:8a:b7:6f:4b:3c:45:
         92:9d:eb:85:fb:57:61:f7:53:45:4a:4e:f8:f2:86:5f:d0:71:
         96:0b:49:3d:1b:c1:6a:01:8d:ad:71:4f:38:79:29:51:58:d0:
         c7:95:a9:a4:ee:20:60:fc:70:67:e7:ca:8d:1b:f5:6f:64:29:
         dd:ef:70:1c:05:9c:23:97:80:0b:01:2a:45:73:1b:f3:99:58:
         94:9f:88:1e:d5:2e:f5:f1:18:b1:c4:97:80:c5:98:3e:e6:06:
         68:f6:1e:7f:77:4d:6e:8d:92:60:4b:8e:4c:cc:ba:bd:82:19:
         da:47:38:36:b4:5c:24:fc:34:6c:38:69:2e:f1:4e:ea:c2:8a:
         b1:93:94:20:5a:9f:00:f2:66:02:2a:bc:b2:13:ec:b9:6b:59:
         e9:81:2d:4a:e7:ec:9a:c6:d1:40:90:d4:20:11:e3:25:2c:42:
         a4:80:ae:9a:06:64:d4:d5:a6:21:39:f6:22:11:64:ed:0e:e0:
         b1:5e:28:0c
-----BEGIN CERTIFICATE-----
MIIDfTCCAmWgAwIBAgIBJzANBgkqhkiG9w0BAQsFADCBrTELMAkGA1UEBhMCVVMx
EzARBgNVBAgMCkNhbGlmb3JuaWExFDASBgNVBAcMC0xvcyBBbmdlbGVzMRUwEwYD
VQQKDAxEaWdpQ2VydCBJbmMxGTAXBgNVBAsMEHd3dy5kaWdpY2VydC5jb20xIDAe
BgNVBAMMF0RpZ2lDZXJ0IEdsb2JhbCBSb290IENBMR8wHQYJKoZIhvcNAQkBFhB3
d3cuZGlnaWNlcnQuY29tMB4XDTIzMDYyNjA4MDUxNloXDTMzMDYyMzA4MDUxNlow
ga8xCzAJBgNVBAYTAlVTMRMwEQYDVQQIDApDYWxpZm9ybmlhMRQwEgYDVQQHDAtM
b3MgQW5nZWxlczEVMBMGA1UECgwMRGlnaUNlcnQgSW5jMRkwFwYDVQQLDBB3d3cu
ZGlnaWNlcnQuY29tMSIwIAYDVQQDDBl2OTUtc2gtY29sZC5kb3V5aW52b2QuY29t
MR8wHQYJKoZIhvcNAQkBFhB3d3cuZGlnaWNlcnQuY29tMIGfMA0GCSqGSIb3DQEB
AQUAA4GNADCBiQKBgQC6rUwJGjyFT2DVk7yeEvSbFueL0igpq/k4meGEOhtwbqBb
rfNOZVwZ+1aJFvtoNkMaO7YyTWNDsMUQaT2WE3+q5HTUs2Cqr1vHVvbhSVXZkrpw
N3NMkWvMEI5Y8uIbGx5yPsa7pcoI2Lsju7+GAt4R6dl5bWCmxgws4zVy8Xa/tQID
AQABoygwJjAkBgNVHREEHTAbghl2OTUtc2gtY29sZC5kb3V5aW52b2QuY29tMA0G
CSqGSIb3DQEBCwUAA4IBAQAzov9jIYE9/f7jgXSNIDtDmMJCVAcmkf+ZrommEyXC
UMZPCbs7hA1d/zRJYIYCeNLYU/jZtwe54PkDuL3R5mrseNmKt29LPEWSneuF+1dh
91NFSk748oZf0HGWC0k9G8FqAY2tcU84eSlRWNDHlamk7iBg/HBn58qNG/VvZCnd
73AcBZwjl4ALASpFcxvzmViUn4ge1S718RixxJeAxZg+5gZo9h5/d01ujZJgS45M
zLq9ghnaRzg2tFwk/DRsOGku8U7qwoqxk5QgWp8A8mYCKryyE+y5a1npgS1K5+ya
xtFAkNQgEeMlLEKkgK6aBmTU1aYhOfYiEWTtDuCxXigM
-----END CERTIFICATE-----
