Certificate:
    Data:
        Version: 3 (0x2)
        Serial Number: 10 (0xa)
    Signature Algorithm: sha256WithRSAEncryption
        Issuer: C=US, ST=California, L=Los Angeles, O=DigiCert Inc, OU=www.digicert.com, CN=DigiCert Global Root CA/emailAddress=www.digicert.com
        Validity
            Not Before: Jun 15 16:13:22 2021 GMT
            Not After : Jun 13 16:13:22 2031 GMT
        Subject: C=US, ST=California, L=Los Angeles, O=DigiCert Inc, OU=www.digicert.com, CN=vip.dingtalk.com/emailAddress=www.digicert.com
        Subject Public Key Info:
            Public Key Algorithm: rsaEncryption
                Public-Key: (1024 bit)
                Modulus:
                    00:ba:ad:4c:09:1a:3c:85:4f:60:d5:93:bc:9e:12:
                    f4:9b:16:e7:8b:d2:28:29:ab:f9:38:99:e1:84:3a:
                    1b:70:6e:a0:5b:ad:f3:4e:65:5c:19:fb:56:89:16:
                    fb:68:36:43:1a:3b:b6:32:4d:63:43:b0:c5:10:69:
                    3d:96:13:7f:aa:e4:74:d4:b3:60:aa:af:5b:c7:56:
                    f6:e1:49:55:d9:92:ba:70:37:73:4c:91:6b:cc:10:
                    8e:58:f2:e2:1b:1b:1e:72:3e:c6:bb:a5:ca:08:d8:
                    bb:23:bb:bf:86:02:de:11:e9:d9:79:6d:60:a6:c6:
                    0c:2c:e3:35:72:f1:76:bf:b5
                Exponent: 65537 (0x10001)
        X509v3 extensions:
            X509v3 Subject Alternative Name: 
                DNS:vip.dingtalk.com
    Signature Algorithm: sha256WithRSAEncryption
         42:f9:e7:48:5a:8f:36:38:96:4f:e0:37:fa:39:e2:d4:49:38:
         40:77:8e:5e:5b:3e:1f:d7:8f:a7:ad:7e:11:a1:f5:74:8a:c7:
         c8:72:ab:64:9e:c8:e8:66:4c:89:2a:04:31:9d:aa:9f:2c:49:
         0f:0e:b1:42:6b:0a:d1:b2:bc:d9:6c:65:b4:a2:bc:94:fb:54:
         7c:dd:7a:a0:46:29:2b:25:3d:cc:d8:2b:e8:ac:fd:09:e6:af:
         97:3b:a5:d4:0c:39:4e:99:c5:20:d5:f3:22:52:31:52:89:d4:
         c7:74:f5:fc:77:3c:26:3f:64:81:50:ec:b6:d5:6d:b3:09:87:
         af:e1:df:87:8a:89:ca:cb:33:10:b9:e7:5a:19:1a:b5:4a:90:
         48:1f:c7:2f:ee:81:f5:6f:06:f8:e3:8a:e4:41:2f:55:fd:6d:
         d4:ff:66:27:e6:79:86:fc:6c:d7:54:c2:4e:bb:fc:1d:c5:62:
         fb:8c:25:40:0d:24:05:16:ef:7f:7b:81:b2:c1:b9:96:cb:11:
         06:70:3d:8a:c1:52:e9:eb:37:0f:18:22:59:8a:ee:d2:37:ee:
         f0:4c:0b:ee:0b:d6:c4:c4:8e:c7:9f:02:64:af:0f:97:ea:b3:
         41:c0:e1:b4:b3:6d:69:2c:f6:01:af:b7:21:09:ce:83:7b:e7:
         76:a0:be:95
-----BEGIN CERTIFICATE-----
MIIDazCCAlOgAwIBAgIBCjANBgkqhkiG9w0BAQsFADCBrTELMAkGA1UEBhMCVVMx
EzARBgNVBAgMCkNhbGlmb3JuaWExFDASBgNVBAcMC0xvcyBBbmdlbGVzMRUwEwYD
VQQKDAxEaWdpQ2VydCBJbmMxGTAXBgNVBAsMEHd3dy5kaWdpY2VydC5jb20xIDAe
BgNVBAMMF0RpZ2lDZXJ0IEdsb2JhbCBSb290IENBMR8wHQYJKoZIhvcNAQkBFhB3
d3cuZGlnaWNlcnQuY29tMB4XDTIxMDYxNTE2MTMyMloXDTMxMDYxMzE2MTMyMlow
gaYxCzAJBgNVBAYTAlVTMRMwEQYDVQQIDApDYWxpZm9ybmlhMRQwEgYDVQQHDAtM
b3MgQW5nZWxlczEVMBMGA1UECgwMRGlnaUNlcnQgSW5jMRkwFwYDVQQLDBB3d3cu
ZGlnaWNlcnQuY29tMRkwFwYDVQQDDBB2aXAuZGluZ3RhbGsuY29tMR8wHQYJKoZI
hvcNAQkBFhB3d3cuZGlnaWNlcnQuY29tMIGfMA0GCSqGSIb3DQEBAQUAA4GNADCB
iQKBgQC6rUwJGjyFT2DVk7yeEvSbFueL0igpq/k4meGEOhtwbqBbrfNOZVwZ+1aJ
FvtoNkMaO7YyTWNDsMUQaT2WE3+q5HTUs2Cqr1vHVvbhSVXZkrpwN3NMkWvMEI5Y
8uIbGx5yPsa7pcoI2Lsju7+GAt4R6dl5bWCmxgws4zVy8Xa/tQIDAQABox8wHTAb
BgNVHREEFDASghB2aXAuZGluZ3RhbGsuY29tMA0GCSqGSIb3DQEBCwUAA4IBAQBC
+edIWo82OJZP4Df6OeLUSThAd45eWz4f14+nrX4RofV0isfIcqtknsjoZkyJKgQx
naqfLEkPDrFCawrRsrzZbGW0oryU+1R83XqgRikrJT3M2CvorP0J5q+XO6XUDDlO
mcUg1fMiUjFSidTHdPX8dzwmP2SBUOy21W2zCYev4d+HionKyzMQuedaGRq1SpBI
H8cv7oH1bwb444rkQS9V/W3U/2Yn5nmG/GzXVMJOu/wdxWL7jCVADSQFFu9/e4Gy
wbmWyxEGcD2KwVLp6zcPGCJZiu7SN+7wTAvuC9bExI7HnwJkrw+X6rNBwOG0s21p
LPYBr7chCc6De+d2oL6V
-----END CERTIFICATE-----
