Certificate:
    Data:
        Version: 3 (0x2)
        Serial Number: 4 (0x4)
    Signature Algorithm: sha256WithRSAEncryption
        Issuer: C=US, ST=California, L=Los Angeles, O=DigiCert Inc, OU=www.digicert.com, CN=DigiCert Global Root CA/emailAddress=www.digicert.com
        Validity
            Not Before: Jun 15 16:13:08 2021 GMT
            Not After : Jun 13 16:13:08 2031 GMT
        Subject: C=US, ST=California, L=Los Angeles, O=DigiCert Inc, OU=www.digicert.com, CN=vortex.data.microsoft.com/emailAddress=www.digicert.com
        Subject Public Key Info:
            Public Key Algorithm: rsaEncryption
                Public-Key: (1024 bit)
                Modulus:
                    00:ba:ad:4c:09:1a:3c:85:4f:60:d5:93:bc:9e:12:
                    f4:9b:16:e7:8b:d2:28:29:ab:f9:38:99:e1:84:3a:
                    1b:70:6e:a0:5b:ad:f3:4e:65:5c:19:fb:56:89:16:
                    fb:68:36:43:1a:3b:b6:32:4d:63:43:b0:c5:10:69:
                    3d:96:13:7f:aa:e4:74:d4:b3:60:aa:af:5b:c7:56:
                    f6:e1:49:55:d9:92:ba:70:37:73:4c:91:6b:cc:10:
                    8e:58:f2:e2:1b:1b:1e:72:3e:c6:bb:a5:ca:08:d8:
                    bb:23:bb:bf:86:02:de:11:e9:d9:79:6d:60:a6:c6:
                    0c:2c:e3:35:72:f1:76:bf:b5
                Exponent: 65537 (0x10001)
        X509v3 extensions:
            X509v3 Subject Alternative Name: 
                DNS:vortex.data.microsoft.com
    Signature Algorithm: sha256WithRSAEncryption
         93:92:31:5a:50:30:de:e4:5c:2e:ae:5b:65:ec:81:5f:6d:c4:
         86:e5:9e:51:2c:fd:1a:fc:8c:17:e4:7e:e5:00:0e:e7:27:c2:
         a6:43:c5:58:73:da:ba:bb:09:36:dc:5a:2a:f1:c0:d2:01:83:
         29:6b:e5:07:1a:a6:de:b1:ed:30:52:d7:04:c0:d1:38:7e:c8:
         fa:68:6e:a9:ab:63:fa:66:c7:72:ec:13:2b:1f:be:7d:74:69:
         67:c9:c5:61:72:48:02:58:48:ba:df:41:18:c9:a5:dc:9f:86:
         5e:c0:8d:73:07:e2:50:65:f8:07:37:4e:ab:dc:69:ce:0d:11:
         b2:05:da:15:d0:7e:42:f4:30:f4:d8:34:dd:ab:c3:07:15:8e:
         ad:b4:d5:dc:7f:ee:1f:ec:1c:c8:0c:e7:72:3a:a4:81:cd:0d:
         3d:9c:4d:c6:51:ec:ea:ad:81:36:17:41:96:cd:e4:b1:37:9f:
         25:3b:dc:e8:bb:ad:81:7a:9a:9c:a2:3e:da:7f:cc:4e:b7:ab:
         eb:b2:7b:00:13:56:63:27:ab:d8:45:b2:52:03:94:21:b1:d2:
         76:fd:06:e2:3c:9a:56:21:97:d9:74:83:8f:8a:e6:25:b8:22:
         de:2e:58:88:88:2c:8f:fe:c6:36:f7:08:d2:a3:00:e2:d7:df:
         8c:c6:d5:4f
-----BEGIN CERTIFICATE-----
MIIDfTCCAmWgAwIBAgIBBDANBgkqhkiG9w0BAQsFADCBrTELMAkGA1UEBhMCVVMx
EzARBgNVBAgMCkNhbGlmb3JuaWExFDASBgNVBAcMC0xvcyBBbmdlbGVzMRUwEwYD
VQQKDAxEaWdpQ2VydCBJbmMxGTAXBgNVBAsMEHd3dy5kaWdpY2VydC5jb20xIDAe
BgNVBAMMF0RpZ2lDZXJ0IEdsb2JhbCBSb290IENBMR8wHQYJKoZIhvcNAQkBFhB3
d3cuZGlnaWNlcnQuY29tMB4XDTIxMDYxNTE2MTMwOFoXDTMxMDYxMzE2MTMwOFow
ga8xCzAJBgNVBAYTAlVTMRMwEQYDVQQIDApDYWxpZm9ybmlhMRQwEgYDVQQHDAtM
b3MgQW5nZWxlczEVMBMGA1UECgwMRGlnaUNlcnQgSW5jMRkwFwYDVQQLDBB3d3cu
ZGlnaWNlcnQuY29tMSIwIAYDVQQDDBl2b3J0ZXguZGF0YS5taWNyb3NvZnQuY29t
MR8wHQYJKoZIhvcNAQkBFhB3d3cuZGlnaWNlcnQuY29tMIGfMA0GCSqGSIb3DQEB
AQUAA4GNADCBiQKBgQC6rUwJGjyFT2DVk7yeEvSbFueL0igpq/k4meGEOhtwbqBb
rfNOZVwZ+1aJFvtoNkMaO7YyTWNDsMUQaT2WE3+q5HTUs2Cqr1vHVvbhSVXZkrpw
N3NMkWvMEI5Y8uIbGx5yPsa7pcoI2Lsju7+GAt4R6dl5bWCmxgws4zVy8Xa/tQID
AQABoygwJjAkBgNVHREEHTAbghl2b3J0ZXguZGF0YS5taWNyb3NvZnQuY29tMA0G
CSqGSIb3DQEBCwUAA4IBAQCTkjFaUDDe5Fwurltl7IFfbcSG5Z5RLP0a/IwX5H7l
AA7nJ8KmQ8VYc9q6uwk23Foq8cDSAYMpa+UHGqbese0wUtcEwNE4fsj6aG6pq2P6
Zsdy7BMrH759dGlnycVhckgCWEi630EYyaXcn4ZewI1zB+JQZfgHN06r3GnODRGy
BdoV0H5C9DD02DTdq8MHFY6ttNXcf+4f7BzIDOdyOqSBzQ09nE3GUezqrYE2F0GW
zeSxN58lO9zou62Bepqcoj7af8xOt6vrsnsAE1ZjJ6vYRbJSA5QhsdJ2/QbiPJpW
IZfZdIOPiuYluCLeLliIiCyP/sY29wjSowDi19+MxtVP
-----END CERTIFICATE-----
