Certificate:
    Data:
        Version: 3 (0x2)
        Serial Number: 82 (0x52)
        Signature Algorithm: sha256WithRSAEncryption
        Issuer: C=US, ST=California, L=Los Angeles, O=DigiCert Inc, OU=www.digicert.com, CN=DigiCert Global Root CA/emailAddress=www.digicert.com
        Validity
            Not Before: Jun 26 08:07:56 2023 GMT
            Not After : Jun 23 08:07:56 2033 GMT
        Subject: C=US, ST=California, L=Los Angeles, O=DigiCert Inc, OU=www.digicert.com, CN=wn.safe.360.cn/emailAddress=www.digicert.com
        Subject Public Key Info:
            Public Key Algorithm: rsaEncryption
                RSA Public-Key: (1024 bit)
                Modulus:
                    00:ba:ad:4c:09:1a:3c:85:4f:60:d5:93:bc:9e:12:
                    f4:9b:16:e7:8b:d2:28:29:ab:f9:38:99:e1:84:3a:
                    1b:70:6e:a0:5b:ad:f3:4e:65:5c:19:fb:56:89:16:
                    fb:68:36:43:1a:3b:b6:32:4d:63:43:b0:c5:10:69:
                    3d:96:13:7f:aa:e4:74:d4:b3:60:aa:af:5b:c7:56:
                    f6:e1:49:55:d9:92:ba:70:37:73:4c:91:6b:cc:10:
                    8e:58:f2:e2:1b:1b:1e:72:3e:c6:bb:a5:ca:08:d8:
                    bb:23:bb:bf:86:02:de:11:e9:d9:79:6d:60:a6:c6:
                    0c:2c:e3:35:72:f1:76:bf:b5
                Exponent: 65537 (0x10001)
        X509v3 extensions:
            X509v3 Subject Alternative Name: 
                DNS:wn.safe.360.cn
    Signature Algorithm: sha256WithRSAEncryption
         70:ac:f2:0c:54:bb:ef:4f:6f:c0:1f:a9:79:82:81:bc:15:a4:
         a0:38:ab:0f:a8:48:7e:f8:d3:75:e8:85:f7:b3:d6:65:fb:a4:
         19:7d:11:bf:d7:f0:08:94:4a:c9:cd:63:8c:14:1e:20:9b:c4:
         51:1a:95:26:09:ce:72:63:f2:b1:88:64:5d:d1:f9:d4:24:d3:
         6a:0b:8d:5c:8c:21:01:93:9a:c7:64:21:53:39:c3:1a:81:49:
         23:46:b3:5b:25:dc:c3:53:a9:10:84:90:53:26:3a:a2:27:07:
         eb:26:f4:40:88:1c:79:ec:61:ca:90:ba:55:49:74:6c:b6:62:
         64:29:06:eb:79:8c:46:6e:f0:ea:5e:27:ae:33:d2:4e:42:f6:
         4d:ac:12:40:bb:12:ba:b4:a0:29:05:c0:40:5d:20:a7:4a:9f:
         1b:af:8e:96:34:1c:12:b6:75:8e:31:bd:8f:df:c2:ca:e5:8d:
         ff:60:46:b8:c6:55:88:b6:98:79:62:8f:22:e8:c6:97:ea:92:
         eb:16:b7:3f:1d:dd:da:b2:c6:88:79:a2:a0:85:c2:fb:bc:24:
         10:19:80:a2:db:73:bd:2b:0a:fa:64:7c:3b:f7:41:ec:df:52:
         93:fa:62:34:20:53:00:2a:ed:3e:e4:3c:29:d2:fa:68:c0:41:
         87:7f:38:b6
-----BEGIN CERTIFICATE-----
MIIDZzCCAk+gAwIBAgIBUjANBgkqhkiG9w0BAQsFADCBrTELMAkGA1UEBhMCVVMx
EzARBgNVBAgMCkNhbGlmb3JuaWExFDASBgNVBAcMC0xvcyBBbmdlbGVzMRUwEwYD
VQQKDAxEaWdpQ2VydCBJbmMxGTAXBgNVBAsMEHd3dy5kaWdpY2VydC5jb20xIDAe
BgNVBAMMF0RpZ2lDZXJ0IEdsb2JhbCBSb290IENBMR8wHQYJKoZIhvcNAQkBFhB3
d3cuZGlnaWNlcnQuY29tMB4XDTIzMDYyNjA4MDc1NloXDTMzMDYyMzA4MDc1Nlow
gaQxCzAJBgNVBAYTAlVTMRMwEQYDVQQIDApDYWxpZm9ybmlhMRQwEgYDVQQHDAtM
b3MgQW5nZWxlczEVMBMGA1UECgwMRGlnaUNlcnQgSW5jMRkwFwYDVQQLDBB3d3cu
ZGlnaWNlcnQuY29tMRcwFQYDVQQDDA53bi5zYWZlLjM2MC5jbjEfMB0GCSqGSIb3
DQEJARYQd3d3LmRpZ2ljZXJ0LmNvbTCBnzANBgkqhkiG9w0BAQEFAAOBjQAwgYkC
gYEAuq1MCRo8hU9g1ZO8nhL0mxbni9IoKav5OJnhhDobcG6gW63zTmVcGftWiRb7
aDZDGju2Mk1jQ7DFEGk9lhN/quR01LNgqq9bx1b24UlV2ZK6cDdzTJFrzBCOWPLi
Gxsecj7Gu6XKCNi7I7u/hgLeEenZeW1gpsYMLOM1cvF2v7UCAwEAAaMdMBswGQYD
VR0RBBIwEIIOd24uc2FmZS4zNjAuY24wDQYJKoZIhvcNAQELBQADggEBAHCs8gxU
u+9Pb8AfqXmCgbwVpKA4qw+oSH7403Xohfez1mX7pBl9Eb/X8AiUSsnNY4wUHiCb
xFEalSYJznJj8rGIZF3R+dQk02oLjVyMIQGTmsdkIVM5wxqBSSNGs1sl3MNTqRCE
kFMmOqInB+sm9ECIHHnsYcqQulVJdGy2YmQpBut5jEZu8OpeJ64z0k5C9k2sEkC7
Erq0oCkFwEBdIKdKnxuvjpY0HBK2dY4xvY/fwsrljf9gRrjGVYi2mHlijyLoxpfq
kusWtz8d3dqyxoh5oqCFwvu8JBAZgKLbc70rCvpkfDv3QezfUpP6YjQgUwAq7T7k
PCnS+mjAQYd/OLY=
-----END CERTIFICATE-----
