Certificate:
    Data:
        Version: 3 (0x2)
        Serial Number: 81 (0x51)
        Signature Algorithm: sha256WithRSAEncryption
        Issuer: C=US, ST=California, L=Los Angeles, O=DigiCert Inc, OU=www.digicert.com, CN=DigiCert Global Root CA/emailAddress=www.digicert.com
        Validity
            Not Before: Jun 26 08:07:51 2023 GMT
            Not After : Jun 23 08:07:51 2033 GMT
        Subject: C=US, ST=California, L=Los Angeles, O=DigiCert Inc, OU=www.digicert.com, CN=woodpecker.uc.cn/emailAddress=www.digicert.com
        Subject Public Key Info:
            Public Key Algorithm: rsaEncryption
                RSA Public-Key: (1024 bit)
                Modulus:
                    00:ba:ad:4c:09:1a:3c:85:4f:60:d5:93:bc:9e:12:
                    f4:9b:16:e7:8b:d2:28:29:ab:f9:38:99:e1:84:3a:
                    1b:70:6e:a0:5b:ad:f3:4e:65:5c:19:fb:56:89:16:
                    fb:68:36:43:1a:3b:b6:32:4d:63:43:b0:c5:10:69:
                    3d:96:13:7f:aa:e4:74:d4:b3:60:aa:af:5b:c7:56:
                    f6:e1:49:55:d9:92:ba:70:37:73:4c:91:6b:cc:10:
                    8e:58:f2:e2:1b:1b:1e:72:3e:c6:bb:a5:ca:08:d8:
                    bb:23:bb:bf:86:02:de:11:e9:d9:79:6d:60:a6:c6:
                    0c:2c:e3:35:72:f1:76:bf:b5
                Exponent: 65537 (0x10001)
        X509v3 extensions:
            X509v3 Subject Alternative Name: 
                DNS:woodpecker.uc.cn
    Signature Algorithm: sha256WithRSAEncryption
         00:41:6e:d8:4f:6c:7b:f2:62:9a:80:80:5a:7f:59:40:4b:3d:
         bb:61:f3:b8:7f:85:0a:1c:27:e9:7d:e8:b1:56:5b:8a:de:ae:
         8f:45:ca:b9:7e:f3:7b:21:d7:93:a6:38:e7:9d:27:96:a6:45:
         c9:31:5a:74:53:f2:db:8a:aa:8f:3c:df:40:d8:a8:df:39:93:
         d3:62:0a:98:51:13:f5:eb:7a:19:19:1d:2b:03:fb:dd:6a:03:
         00:d2:10:7a:4c:d2:2b:48:8a:e4:14:33:89:59:6a:f3:62:e8:
         d1:9f:eb:b4:d3:f4:2d:33:28:2c:01:e3:9a:c1:de:7c:03:6c:
         d0:f5:24:a0:81:4b:6c:fa:42:75:fc:df:b9:be:fd:95:86:2c:
         51:7a:ec:d5:a3:5e:6f:78:bf:39:bb:52:18:77:45:ee:79:f8:
         b0:6a:a3:2f:bf:52:1a:34:07:bc:e5:e3:21:0e:cc:8c:ea:4e:
         2d:cb:2c:aa:9f:52:f9:f4:89:9d:87:6e:33:6b:10:a9:2b:c5:
         1d:02:cb:d8:08:a1:94:a8:b3:b1:8e:bc:65:f3:a9:b1:5f:5d:
         34:a3:d7:da:a2:de:a2:ac:56:d5:80:8a:77:2a:b0:81:e7:d1:
         8d:98:30:8e:a3:d9:d4:5d:b4:8b:85:67:42:8a:7a:44:d6:df:
         30:0b:ba:70
-----BEGIN CERTIFICATE-----
MIIDazCCAlOgAwIBAgIBUTANBgkqhkiG9w0BAQsFADCBrTELMAkGA1UEBhMCVVMx
EzARBgNVBAgMCkNhbGlmb3JuaWExFDASBgNVBAcMC0xvcyBBbmdlbGVzMRUwEwYD
VQQKDAxEaWdpQ2VydCBJbmMxGTAXBgNVBAsMEHd3dy5kaWdpY2VydC5jb20xIDAe
BgNVBAMMF0RpZ2lDZXJ0IEdsb2JhbCBSb290IENBMR8wHQYJKoZIhvcNAQkBFhB3
d3cuZGlnaWNlcnQuY29tMB4XDTIzMDYyNjA4MDc1MVoXDTMzMDYyMzA4MDc1MVow
gaYxCzAJBgNVBAYTAlVTMRMwEQYDVQQIDApDYWxpZm9ybmlhMRQwEgYDVQQHDAtM
b3MgQW5nZWxlczEVMBMGA1UECgwMRGlnaUNlcnQgSW5jMRkwFwYDVQQLDBB3d3cu
ZGlnaWNlcnQuY29tMRkwFwYDVQQDDBB3b29kcGVja2VyLnVjLmNuMR8wHQYJKoZI
hvcNAQkBFhB3d3cuZGlnaWNlcnQuY29tMIGfMA0GCSqGSIb3DQEBAQUAA4GNADCB
iQKBgQC6rUwJGjyFT2DVk7yeEvSbFueL0igpq/k4meGEOhtwbqBbrfNOZVwZ+1aJ
FvtoNkMaO7YyTWNDsMUQaT2WE3+q5HTUs2Cqr1vHVvbhSVXZkrpwN3NMkWvMEI5Y
8uIbGx5yPsa7pcoI2Lsju7+GAt4R6dl5bWCmxgws4zVy8Xa/tQIDAQABox8wHTAb
BgNVHREEFDASghB3b29kcGVja2VyLnVjLmNuMA0GCSqGSIb3DQEBCwUAA4IBAQAA
QW7YT2x78mKagIBaf1lASz27YfO4f4UKHCfpfeixVluK3q6PRcq5fvN7IdeTpjjn
nSeWpkXJMVp0U/LbiqqPPN9A2KjfOZPTYgqYURP163oZGR0rA/vdagMA0hB6TNIr
SIrkFDOJWWrzYujRn+u00/QtMygsAeOawd58A2zQ9SSggUts+kJ1/N+5vv2VhixR
euzVo15veL85u1IYd0XuefiwaqMvv1IaNAe85eMhDsyM6k4tyyyqn1L59Imdh24z
axCpK8UdAsvYCKGUqLOxjrxl86mxX100o9faot6irFbVgIp3KrCB59GNmDCOo9nU
XbSLhWdCinpE1t8wC7pw
-----END CERTIFICATE-----
